LX51 LINKER/LOCATER V4.66.100.0                                                         04/23/2024  19:14:21  PAGE 1


LX51 LINKER/LOCATER V4.66.100.0, INVOKED BY:
C:\KEIL_V5\C51\BIN\LX51.EXE .\Output\STARTUP.obj, .\Output\Project.obj, .\Output\Touch_MCU_Init.obj, .\Output\Config.obj
>> , .\Output\main.obj, .\Output\BF7615BMXX_XXXX_API_Timer.obj, .\Output\BF7615BMXX_XXXX_API_LVDT.obj, .\Output\BF7615BM
>> XX_XXXX_API_UART.obj, .\Output\BF7615BMXX_XXXX_CTK.obj, .\Output\BF7615BMXX_XXXX_CTK_Touch.obj, .\Output\BF7615BMXX_X
>> XXX_CTK_Trace.obj, .\BF7615BMXX_XXXX_Library\BF7615BMXX_XXXX_CTK_Lib\BF7615BMXX_XXXX_CS_DataDeal_V1_0_0.LIB, .\Output
>> \BF7615BMXX_XXXX_CTK_Idle.obj, .\Output\View.obj, .\Output\Cmd.obj, .\Output\SysTime.obj, .\Output\SM16306SJ.obj, .\O
>> utput\Key_Function.obj, .\Output\Led.obj, .\Output\Display_Function.obj TO .\Output\BYD_MCU02D_BF7615BMXX_XXXX_V1_1_3
>>  PRINT (.\List\BYD_MCU02D_BF7615BMXX_XXXX_V1_1_3.map) DISABLEWARNING (16) REMOVEUNUSED


CPU MODE:     8051 MODE
MEMORY MODEL: LARGE WITH FLOATING POINT ARITHMETIC


INPUT MODULES INCLUDED:
  .\Output\STARTUP.obj (?C_STARTUP)
         COMMENT TYPE 1: A51 / ASM51 Assembler
  .\Output\Project.obj (PROJECT)
         COMMENT TYPE 0: C51 V9.60.7.0
  .\Output\Touch_MCU_Init.obj (TOUCH_MCU_INIT)
         COMMENT TYPE 0: C51 V9.60.7.0
  .\Output\Config.obj (CONFIG)
         COMMENT TYPE 0: C51 V9.60.7.0
  .\Output\main.obj (MAIN)
         COMMENT TYPE 0: C51 V9.60.7.0
  .\Output\BF7615BMXX_XXXX_API_Timer.obj (BF7615BMXX_XXXX_API_TIMER)
         COMMENT TYPE 0: C51 V9.60.7.0
  .\Output\BF7615BMXX_XXXX_API_LVDT.obj (BF7615BMXX_XXXX_API_LVDT)
         COMMENT TYPE 0: C51 V9.60.7.0
  .\Output\BF7615BMXX_XXXX_API_UART.obj (BF7615BMXX_XXXX_API_UART)
         COMMENT TYPE 0: C51 V9.60.7.0
  .\Output\BF7615BMXX_XXXX_CTK.obj (BF7615BMXX_XXXX_CTK)
         COMMENT TYPE 0: C51 V9.60.7.0
  .\Output\BF7615BMXX_XXXX_CTK_Touch.obj (BF7615BMXX_XXXX_CTK_TOUCH)
         COMMENT TYPE 0: C51 V9.60.7.0
  .\Output\BF7615BMXX_XXXX_CTK_Trace.obj (BF7615BMXX_XXXX_CTK_TRACE)
         COMMENT TYPE 0: C51 V9.60.7.0
  .\Output\BF7615BMXX_XXXX_CTK_Idle.obj (BF7615BMXX_XXXX_CTK_IDLE)
         COMMENT TYPE 0: C51 V9.60.7.0
  .\Output\View.obj (VIEW)
         COMMENT TYPE 0: C51 V9.60.7.0
  .\Output\Cmd.obj (CMD)
         COMMENT TYPE 0: C51 V9.60.7.0
  .\Output\SysTime.obj (SYSTIME)
         COMMENT TYPE 0: C51 V9.60.7.0
  .\Output\SM16306SJ.obj (SM16306SJ)
         COMMENT TYPE 0: C51 V9.60.7.0
  .\Output\Key_Function.obj (KEY_FUNCTION)
         COMMENT TYPE 0: C51 V9.60.7.0
  .\Output\Led.obj (LED)
         COMMENT TYPE 0: C51 V9.60.7.0
  .\Output\Display_Function.obj (DISPLAY_FUNCTION)
         COMMENT TYPE 0: C51 V9.60.7.0
  C:\KEIL_V5\C51\LIB\C51FPL.LIB (?C?FCAST)
         COMMENT TYPE 1: A51 / ASM51 Assembler
  C:\KEIL_V5\C51\LIB\C51FPL.LIB (?C?CASTF)
         COMMENT TYPE 1: A51 / ASM51 Assembler
  C:\KEIL_V5\C51\LIB\C51L.LIB (?C_INIT)
         COMMENT TYPE 1: A51 / ASM51 Assembler
  C:\KEIL_V5\C51\LIB\C51L.LIB (?C?CLDOPTR)
         COMMENT TYPE 1: A51 / ASM51 Assembler
  C:\KEIL_V5\C51\LIB\C51L.LIB (?C?CSTPTR)
         COMMENT TYPE 1: A51 / ASM51 Assembler
  C:\KEIL_V5\C51\LIB\C51L.LIB (?C?CSTOPTR)
         COMMENT TYPE 1: A51 / ASM51 Assembler
  C:\KEIL_V5\C51\LIB\C51L.LIB (?C?IMUL)
LX51 LINKER/LOCATER V4.66.100.0                                                       04/23/2024  19:14:21  PAGE 2


         COMMENT TYPE 1: A51 / ASM51 Assembler
  C:\KEIL_V5\C51\LIB\C51L.LIB (?C?SIDIV)
         COMMENT TYPE 1: A51 / ASM51 Assembler
  C:\KEIL_V5\C51\LIB\C51L.LIB (?C?IILDX)
         COMMENT TYPE 1: A51 / ASM51 Assembler
  C:\KEIL_V5\C51\LIB\C51L.LIB (?C?LMUL)
         COMMENT TYPE 1: A51 / ASM51 Assembler
  C:\KEIL_V5\C51\LIB\C51L.LIB (?C?ULDIV)
         COMMENT TYPE 1: A51 / ASM51 Assembler
  C:\KEIL_V5\C51\LIB\C51L.LIB (?C?SLDIV)
         COMMENT TYPE 1: A51 / ASM51 Assembler
  C:\KEIL_V5\C51\LIB\C51L.LIB (?C?LNOT)
         COMMENT TYPE 1: A51 / ASM51 Assembler
  C:\KEIL_V5\C51\LIB\C51L.LIB (?C?LNEG)
         COMMENT TYPE 1: A51 / ASM51 Assembler
  C:\KEIL_V5\C51\LIB\C51L.LIB (?C?SLCMP)
         COMMENT TYPE 1: A51 / ASM51 Assembler
  C:\KEIL_V5\C51\LIB\C51L.LIB (?C?ULCMP)
         COMMENT TYPE 1: A51 / ASM51 Assembler
  C:\KEIL_V5\C51\LIB\C51L.LIB (?C?ULSHR)
         COMMENT TYPE 1: A51 / ASM51 Assembler
  C:\KEIL_V5\C51\LIB\C51L.LIB (?C?SLSHR)
         COMMENT TYPE 1: A51 / ASM51 Assembler
  C:\KEIL_V5\C51\LIB\C51L.LIB (?C?LSHL)
         COMMENT TYPE 1: A51 / ASM51 Assembler
  C:\KEIL_V5\C51\LIB\C51L.LIB (?C?LSTXDATA)
         COMMENT TYPE 1: A51 / ASM51 Assembler
  C:\KEIL_V5\C51\LIB\C51L.LIB (?C?LSTKXDATA)
         COMMENT TYPE 1: A51 / ASM51 Assembler
  C:\KEIL_V5\C51\LIB\C51L.LIB (?C?LCASE)
         COMMENT TYPE 1: A51 / ASM51 Assembler
  C:\KEIL_V5\C51\LIB\C51L.LIB (?C?MEMSET)
         COMMENT TYPE 1: A51 / ASM51 Assembler
  C:\KEIL_V5\C51\LIB\C51L.LIB (?C?UIDIV)
         COMMENT TYPE 1: A51 / ASM51 Assembler


ACTIVE MEMORY CLASSES OF MODULE:  .\Output\BYD_MCU02D_BF7615BMXX_XXXX_V1_1_3 (?C_STARTUP)

BASE        START       END         USED      MEMORY CLASS
==========================================================
C:000000H   C:000000H   C:00FFFFH   005335H   CODE
I:000000H   I:000000H   I:0000FFH   000019H   IDATA
X:000000H   X:000000H   X:00FFFFH   000206H   XDATA
I:000020H.0 I:000020H.0 I:00002FH.7 000001H.1 BIT
C:000000H   C:000000H   C:00FFFFH   000116H   CONST
I:000000H   I:000000H   I:00007FH   000008H   DATA


MEMORY MAP OF MODULE:  .\Output\BYD_MCU02D_BF7615BMXX_XXXX_V1_1_3 (?C_STARTUP)


START     STOP      LENGTH    ALIGN  RELOC    MEMORY CLASS   SEGMENT NAME
=========================================================================

* * * * * * * * * * *   D A T A   M E M O R Y   * * * * * * * * * * * * *
000000H   000007H   000008H   ---    AT..     DATA           "REG BANK 0"
000008H   00001FH   000018H   BYTE   UNIT     IDATA          ?ID?SM16306SJ
000020H.0 000020H.4 000000H.5 BIT    UNIT     BIT            ?BI?BF7615BMXX_XXXX_CTK
000020H.5 000020H.7 000000H.3 BIT    UNIT     BIT            ?BI?BF7615BMXX_XXXX_API_LVDT
000021H.0 000021H.0 000000H.1 BIT    UNIT     BIT            ?BI?PROJECT
000021H.1 000021H   000000H.7 ---    ---      **GAP**
000022H   000022H   000001H   BYTE   UNIT     IDATA          ?STACK

* * * * * * * * * * *   C O D E   M E M O R Y   * * * * * * * * * * * * *
LX51 LINKER/LOCATER V4.66.100.0                                                       04/23/2024  19:14:21  PAGE 3


000000H   000002H   000003H   ---    OFFS..   CODE           ?CO??C_STARTUP?0
000003H   000003H   000001H   BYTE   UNIT     CODE           ?PR?INIT_IO?TOUCH_MCU_INIT
000004H   000004H   000001H   BYTE   UNIT     CODE           ?PR?TRACE_MODE_INIT?TOUCH_MCU_INIT
000005H   000005H   000001H   BYTE   UNIT     CODE           ?PR?CMDSEND1SLOOP?CMD
000006H   00000AH   000005H   ---    ---      **GAP**
00000BH   00000DH   000003H   BYTE   OFFS..   CODE           ?BF7615BMXX_XXXX_API_TIMER?0000B
00000EH   000017H   00000AH   BYTE   UNIT     CODE           ?PR?SET_SYS_CLK?TOUCH_MCU_INIT
000018H   00001AH   000003H   ---    ---      **GAP**
00001BH   00001DH   000003H   BYTE   OFFS..   CODE           ?BF7615BMXX_XXXX_API_TIMER?0001B
00001EH   000062H   000045H   BYTE   UNIT     CODE           ?PR?DEFAULT_SET_IO?TOUCH_MCU_INIT
000063H   000065H   000003H   BYTE   OFFS..   CODE           ?BF7615BMXX_XXXX_CTK?00063
000066H   000072H   00000DH   ---    ---      **GAP**
000073H   000075H   000003H   BYTE   OFFS..   CODE           ?BF7615BMXX_XXXX_API_TIMER?00073
000076H   000082H   00000DH   ---    ---      **GAP**
000083H   000085H   000003H   BYTE   OFFS..   CODE           ?BF7615BMXX_XXXX_API_LVDT?00083
000086H   00008AH   000005H   ---    ---      **GAP**
00008BH   00008DH   000003H   BYTE   OFFS..   CODE           ?BF7615BMXX_XXXX_API_UART?0008B
00008EH   000092H   000005H   ---    ---      **GAP**
000093H   000095H   000003H   BYTE   OFFS..   CODE           ?BF7615BMXX_XXXX_API_UART?00093
000096H   002788H   0026F3H   BYTE   UNIT     CODE           ?PR?_LED_100USPOOL?LED
002789H   003421H   000C99H   BYTE   UNIT     CODE           ?PR?_CTK_SNS_RENOVATE?BF7615BMXX_XXXX_CTK
003422H   0037E6H   0003C5H   BYTE   UNIT     CODE           ?C?LIB_CODE
0037E7H   003B99H   0003B3H   BYTE   UNIT     CODE           ?PR?CTK_BF7615BMXX_XXXX_ADJUST_INT?BF7615BMXX_XXXX_CTK
003B9AH   003E84H   0002EBH   BYTE   UNIT     CODE           ?PR?KEY_FUNCTION_DEAL?KEY_FUNCTION
003E85H   0040FAH   000276H   BYTE   UNIT     CODE           ?C_INITSEG
0040FBH   004348H   00024EH   BYTE   UNIT     CODE           ?PR?_CTK_BF7615BMXX_XXXX_GET_KEYS_TOUCH?BF7615BMXX_XXXX_CT
                                                             -K
004349H   004574H   00022CH   BYTE   UNIT     CODE           ?PR?CTK_INIT?TOUCH_MCU_INIT
004575H   004731H   0001BDH   BYTE   UNIT     CODE           ?PR?GET_KEY_CODE?KEY_FUNCTION
004732H   00486AH   000139H   BYTE   UNIT     CODE           ?PR?CTK_SET_PARA?BF7615BMXX_XXXX_CTK
00486BH   004972H   000108H   BYTE   UNIT     CODE           ?PR?TIMER0_ISR?BF7615BMXX_XXXX_API_TIMER
004973H   004A2EH   0000BCH   BYTE   UNIT     CODE           ?PR?CTK_ISR?BF7615BMXX_XXXX_CTK
004A2FH   004ACBH   00009DH   BYTE   UNIT     CODE           ?C_C51STARTUP
004ACCH   004B67H   00009CH   BYTE   UNIT     CODE           ?PR?BF7615BMXX_XXXX_SET_TOUCH_FLAG?BF7615BMXX_XXXX_CTK_TOU
                                                             -CH
004B68H   004BF9H   000092H   BYTE   UNIT     CODE           ?PR?PROJECT?PROJECT
004BFAH   004C8BH   000092H   BYTE   UNIT     CODE           ?PR?_TIMER0_INIT?BF7615BMXX_XXXX_API_TIMER
004C8CH   004D0DH   000082H   BYTE   UNIT     CODE           ?PR?_KEY_NUM?KEY_FUNCTION
004D0EH   004D8DH   000080H   BYTE   UNIT     CODE           ?PR?CFG_CHECK?TOUCH_MCU_INIT
004D8EH   004E05H   000078H   BYTE   UNIT     CODE           ?PR?SM16XX_INIT?SM16306SJ
004E06H   004E72H   00006DH   BYTE   UNIT     CODE           ?PR?_TIMER1_INIT?BF7615BMXX_XXXX_API_TIMER
004E73H   004ECBH   000059H   BYTE   UNIT     CODE           ?PR?UART0_INIT?BF7615BMXX_XXXX_API_UART
004ECCH   004F21H   000056H   BYTE   UNIT     CODE           ?PR?TIMER1_ISR?BF7615BMXX_XXXX_API_TIMER
004F22H   004F77H   000056H   BYTE   UNIT     CODE           ?PR?UART1_INIT?BF7615BMXX_XXXX_API_UART
004F78H   004FCCH   000055H   BYTE   UNIT     CODE           ?PR?_SM16XX_WRITEONEBYTE?SM16306SJ
004FCDH   00501BH   00004FH   BYTE   UNIT     CODE           ?PR?UART0_ISR?BF7615BMXX_XXXX_API_UART
00501CH   005067H   00004CH   BYTE   UNIT     CODE           ?PR?TIME_BASIC?SYSTIME
005068H   0050B1H   00004AH   BYTE   UNIT     CODE           ?PR?UART1_ISR?BF7615BMXX_XXXX_API_UART
0050B2H   0050F5H   000044H   BYTE   UNIT     CODE           ?C?LDIV
0050F6H   005135H   000040H   BYTE   UNIT     CODE           ?PR?BASE_LINE_INIT?BF7615BMXX_XXXX_CTK
005136H   00516EH   000039H   BYTE   UNIT     CODE           ?PR?LVDT_ISR?BF7615BMXX_XXXX_API_LVDT
00516FH   0051A5H   000037H   BYTE   UNIT     CODE           ?PR?LED_ALL_CLOSE?LED
0051A6H   0051DBH   000036H   BYTE   UNIT     CODE           ?PR?SET_NEXT_SNS?BF7615BMXX_XXXX_CTK
0051DCH   005209H   00002EH   BYTE   UNIT     CODE           ?PR?RESET_CNT_ADD?BF7615BMXX_XXXX_API_TIMER
00520AH   005234H   00002BH   BYTE   UNIT     CODE           ?PR?CMDINIT?CMD
005235H   005258H   000024H   BYTE   UNIT     CODE           ?PR?MAIN?MAIN
005259H   00527CH   000024H   BYTE   UNIT     CODE           ?PR?_CTK_BF7615BMXX_XXXX_SET_PARA?BF7615BMXX_XXXX_CTK
00527DH   00529FH   000023H   BYTE   UNIT     CODE           ?PR?LVDT_INIT?BF7615BMXX_XXXX_API_LVDT
0052A0H   0052BEH   00001FH   BYTE   UNIT     CODE           ?PR?MCU_INIT?TOUCH_MCU_INIT
0052BFH   0052DDH   00001FH   BYTE   UNIT     CODE           ?PR?LED_INIT?LED
0052DEH   0052F9H   00001CH   BYTE   UNIT     CODE           ?PR?TIMER2_WDT_ISR?BF7615BMXX_XXXX_API_TIMER
0052FAH   005311H   000018H   BYTE   UNIT     CODE           ?PR?FUNCTION_INIT?TOUCH_MCU_INIT
005312H   005328H   000017H   BYTE   UNIT     CODE           ?PR?WDT_INIT?TOUCH_MCU_INIT
005329H   00533CH   000014H   BYTE   UNIT     CODE           ?PR?_DELAY_NOP?SM16306SJ
00533DH   005350H   000014H   BYTE   UNIT     CODE           ?PR?SM16XX_WRITEALL?SM16306SJ
LX51 LINKER/LOCATER V4.66.100.0                                                       04/23/2024  19:14:21  PAGE 4


005351H   005360H   000010H   BYTE   UNIT     CODE           ?PR?DISPLAYKEYLED?DISPLAY_FUNCTION
005361H   00544CH   0000ECH   BYTE   UNIT     CONST          ?CO?CONFIG
00544DH   005476H   00002AH   BYTE   UNIT     CONST          ?CO?TOUCH_MCU_INIT

* * * * * * * * * * *  X D A T A   M E M O R Y  * * * * * * * * * * * * *
000000H   0000A8H   0000A9H   BYTE   UNIT     XDATA          ?XD?CONFIG
0000A9H   000135H   00008DH   BYTE   UNIT     XDATA          ?XD?BF7615BMXX_XXXX_CTK
000136H   000181H   00004CH   BYTE   UNIT     XDATA          ?XD?VIEW
000182H   0001BDH   00003CH   BYTE   UNIT     XDATA          ?XD?CMD
0001BEH   0001D8H   00001BH   BYTE   UNIT     XDATA          _XDATA_GROUP_
0001D9H   0001E6H   00000EH   BYTE   UNIT     XDATA          ?XD?BF7615BMXX_XXXX_API_TIMER
0001E7H   0001F0H   00000AH   BYTE   UNIT     XDATA          ?XD?SM16306SJ
0001F1H   0001FAH   00000AH   BYTE   UNIT     XDATA          ?XD?KEY_FUNCTION
0001FBH   0001FFH   000005H   BYTE   UNIT     XDATA          ?XD?BF7615BMXX_XXXX_API_LVDT
000200H   000201H   000002H   BYTE   UNIT     XDATA          ?XD?BF7615BMXX_XXXX_API_UART
000202H   000203H   000002H   BYTE   UNIT     XDATA          ?XD?BF7615BMXX_XXXX_CTK_TOUCH
000204H   000204H   000001H   BYTE   UNIT     XDATA          ?XD?PROJECT
000205H   000205H   000001H   BYTE   UNIT     XDATA          ?XD?LED

* * * * * * * * *   R E M O V E D     S E G M E N T S   * * * * * * * *
   *DEL*:           000077H   BYTE   UNIT     CODE           ?PR?_DELAY_MS?TOUCH_MCU_INIT
   *DEL*:           000006H   BYTE   UNIT     XDATA          ?XD?_DELAY_MS?TOUCH_MCU_INIT
   *DEL*:           00005FH   BYTE   UNIT     CODE           ?PR?_UART_RECE_CHECK?BF7615BMXX_XXXX_API_UART
   *DEL*:           000008H   BYTE   UNIT     XDATA          ?XD?_UART_RECE_CHECK?BF7615BMXX_XXXX_API_UART
   *DEL*:           00001CH   BYTE   UNIT     CODE           ?PR?_HTONS?VIEW
   *DEL*:           000002H   BYTE   UNIT     XDATA          ?XD?_HTONS?VIEW
   *DEL*:           0000D1H   BYTE   UNIT     CODE           ?PR?_HTONL?VIEW
   *DEL*:           000004H   BYTE   UNIT     XDATA          ?XD?_HTONL?VIEW
   *DEL*:           00003FH   BYTE   UNIT     CODE           ?PR?_CHECKOUT?VIEW
   *DEL*:           000005H   BYTE   UNIT     XDATA          ?XD?_CHECKOUT?VIEW
   *DEL*:           000050H   BYTE   UNIT     CODE           ?PR?_CMDGETSENDCHR?CMD
   *DEL*:           000003H   BYTE   UNIT     XDATA          ?XD?_CMDGETSENDCHR?CMD
   *DEL*:           00004DH   BYTE   UNIT     CODE           ?PR?_CMDRECV?CMD
   *DEL*:           000001H   BYTE   UNIT     XDATA          ?XD?_CMDRECV?CMD
   *DEL*:           000011H   BYTE   UNIT     CODE           ?PR?_CMDCLOSERECVDATA?CMD
   *DEL*:           000001H   BYTE   UNIT     XDATA          ?XD?_CMDCLOSERECVDATA?CMD
   *DEL*:           000001H   BYTE   UNIT     CODE           ?PR?CMDRECVPOOL?CMD
   *DEL*:           000070H   BYTE   UNIT     CODE           ?PR?CMDSENDDEVICESTATUSQUERY?CMD
   *DEL*:           000001H   BYTE   UNIT     CODE           ?PR?CMDSEND?CMD
   *DEL*:           000016H   BYTE   UNIT     CODE           ?PR?SYSTIMEINIT?SYSTIME
   *DEL*:           000020H   BYTE   UNIT     CODE           ?PR?SYSTIME100US?SYSTIME
   *DEL*:           000016H   BYTE   UNIT     CODE           ?PR?SYSTIME1MS?SYSTIME
   *DEL*:           000016H   BYTE   UNIT     CODE           ?PR?SYSTIME10MSPOOL?SYSTIME
   *DEL*:           000022H   BYTE   UNIT     CODE           ?PR?SYSTIME20MSPOOL?SYSTIME
   *DEL*:           00002FH   BYTE   UNIT     CODE           ?PR?SYSTIME100MSPOOL?SYSTIME
   *DEL*:           000022H   BYTE   UNIT     CODE           ?PR?SYSTIME500MSPOOL?SYSTIME
   *DEL*:           00002CH   BYTE   UNIT     CODE           ?PR?LED_ALL_OPEN?LED



OVERLAY MAP OF MODULE:   .\Output\BYD_MCU02D_BF7615BMXX_XXXX_V1_1_3 (?C_STARTUP)


FUNCTION/MODULE                               XDATA_GROUP
--> CALLED FUNCTION/MODULE                    START  STOP
=========================================================
?C_C51STARTUP                                 ----- -----
  +--> MAIN/MAIN
  +--> ?C_INITSEG

MAIN/MAIN                                     ----- -----
  +--> MCU_INIT/TOUCH_MCU_INIT
  +--> LED_INIT/LED
  +--> SM16XX_INIT/SM16306SJ
  +--> CMDINIT/CMD
LX51 LINKER/LOCATER V4.66.100.0                                                       04/23/2024  19:14:21  PAGE 5


  +--> BF7615BMXX_XXXX_SET_TOUCH_FLAG/BF7615BMXX_XXXX_CTK_TOUCH
  +--> PROJECT/PROJECT

MCU_INIT/TOUCH_MCU_INIT                       ----- -----
  +--> WDT_INIT/TOUCH_MCU_INIT
  +--> SET_SYS_CLK/TOUCH_MCU_INIT
  +--> CFG_CHECK/TOUCH_MCU_INIT
  +--> DEFAULT_SET_IO/TOUCH_MCU_INIT
  +--> INIT_IO/TOUCH_MCU_INIT
  +--> TRACE_MODE_INIT/TOUCH_MCU_INIT
  +--> FUNCTION_INIT/TOUCH_MCU_INIT
  +--> CTK_INIT/TOUCH_MCU_INIT

WDT_INIT/TOUCH_MCU_INIT                       ----- -----

SET_SYS_CLK/TOUCH_MCU_INIT                    ----- -----

CFG_CHECK/TOUCH_MCU_INIT                      01BEH 01BEH

DEFAULT_SET_IO/TOUCH_MCU_INIT                 ----- -----

INIT_IO/TOUCH_MCU_INIT                        ----- -----

TRACE_MODE_INIT/TOUCH_MCU_INIT                ----- -----

FUNCTION_INIT/TOUCH_MCU_INIT                  ----- -----
  +--> UART0_INIT/BF7615BMXX_XXXX_API_UART
  +--> UART1_INIT/BF7615BMXX_XXXX_API_UART
  +--> _TIMER0_INIT/BF7615BMXX_XXXX_API_TIMER
  +--> _TIMER1_INIT/BF7615BMXX_XXXX_API_TIMER
  +--> LVDT_INIT/BF7615BMXX_XXXX_API_LVDT

UART0_INIT/BF7615BMXX_XXXX_API_UART           ----- -----

UART1_INIT/BF7615BMXX_XXXX_API_UART           ----- -----

_TIMER0_INIT/BF7615BMXX_XXXX_API_TIMER        01BEH 01BFH

_TIMER1_INIT/BF7615BMXX_XXXX_API_TIMER        01BEH 01BFH

LVDT_INIT/BF7615BMXX_XXXX_API_LVDT            ----- -----

CTK_INIT/TOUCH_MCU_INIT                       ----- -----
  +--> CTK_SET_PARA/BF7615BMXX_XXXX_CTK
  +--> _CTK_BF7615BMXX_XXXX_SET_PARA/BF7615BMXX_XXXX_CTK

CTK_SET_PARA/BF7615BMXX_XXXX_CTK              01BEH 01BEH

_CTK_BF7615BMXX_XXXX_SET_PARA/BF7615BMXX+     01D7H 01D8H
... _XXXX_CTK

LED_INIT/LED                                  ----- -----

SM16XX_INIT/SM16306SJ                         ----- -----

CMDINIT/CMD                                   ----- -----

BF7615BMXX_XXXX_SET_TOUCH_FLAG/BF7615BMX+     ----- -----
... X_XXXX_CTK_TOUCH
  +--> _CTK_SNS_RENOVATE/BF7615BMXX_XXXX_CTK
  +--> _CTK_BF7615BMXX_XXXX_GET_KEYS_TOUCH/BF7615BMXX_XXXX_CTK

_CTK_SNS_RENOVATE/BF7615BMXX_XXXX_CTK         01BEH 01CDH

_CTK_BF7615BMXX_XXXX_GET_KEYS_TOUCH/BF76+     01BEH 01BEH
LX51 LINKER/LOCATER V4.66.100.0                                                       04/23/2024  19:14:21  PAGE 6


... 15BMXX_XXXX_CTK
  +--> BASE_LINE_INIT/BF7615BMXX_XXXX_CTK

BASE_LINE_INIT/BF7615BMXX_XXXX_CTK            01BFH 01BFH

PROJECT/PROJECT                               ----- -----
  +--> KEY_FUNCTION_DEAL/KEY_FUNCTION
  +--> DISPLAYKEYLED/DISPLAY_FUNCTION
  +--> CMDSEND1SLOOP/CMD

KEY_FUNCTION_DEAL/KEY_FUNCTION                ----- -----
  +--> GET_KEY_CODE/KEY_FUNCTION

GET_KEY_CODE/KEY_FUNCTION                     ----- -----
  +--> _KEY_NUM/KEY_FUNCTION

_KEY_NUM/KEY_FUNCTION                         01BEH 01C4H

DISPLAYKEYLED/DISPLAY_FUNCTION                ----- -----

CMDSEND1SLOOP/CMD                             ----- -----

?C_INITSEG                                    ----- -----

*** NEW ROOT ********************************

TIMER0_ISR/BF7615BMXX_XXXX_API_TIMER          01CEH 01CEH
  +--> _LED_100USPOOL/LED
  +--> RESET_CNT_ADD/BF7615BMXX_XXXX_API_TIMER

_LED_100USPOOL/LED                            01CFH 01D0H
  +--> LED_ALL_CLOSE/LED
  +--> SM16XX_WRITEALL/SM16306SJ

LED_ALL_CLOSE/LED                             ----- -----
  +--> SM16XX_WRITEALL/SM16306SJ

SM16XX_WRITEALL/SM16306SJ                     ----- -----
  +--> _SM16XX_WRITEONEBYTE/SM16306SJ

_SM16XX_WRITEONEBYTE/SM16306SJ                01D1H 01D3H
  +--> _DELAY_NOP/SM16306SJ

_DELAY_NOP/SM16306SJ                          01D4H 01D4H

RESET_CNT_ADD/BF7615BMXX_XXXX_API_TIMER       ----- -----

*** NEW ROOT ********************************

TIMER1_ISR/BF7615BMXX_XXXX_API_TIMER          ----- -----
  +--> TIME_BASIC/SYSTIME

TIME_BASIC/SYSTIME                            ----- -----

*** NEW ROOT ********************************

TIMER2_WDT_ISR/BF7615BMXX_XXXX_API_TIMER      ----- -----

*** NEW ROOT ********************************

LVDT_ISR/BF7615BMXX_XXXX_API_LVDT             ----- -----

*** NEW ROOT ********************************

UART0_ISR/BF7615BMXX_XXXX_API_UART            01D5H 01D5H
LX51 LINKER/LOCATER V4.66.100.0                                                       04/23/2024  19:14:21  PAGE 7



*** NEW ROOT ********************************

UART1_ISR/BF7615BMXX_XXXX_API_UART            01D6H 01D6H

*** NEW ROOT ********************************

CTK_ISR/BF7615BMXX_XXXX_CTK                   ----- -----
  +--> CTK_BF7615BMXX_XXXX_ADJUST_INT/BF7615BMXX_XXXX_CTK
  +--> SET_NEXT_SNS/BF7615BMXX_XXXX_CTK

CTK_BF7615BMXX_XXXX_ADJUST_INT/BF7615BMX+     ----- -----
... X_XXXX_CTK
  +--> SET_NEXT_SNS/BF7615BMXX_XXXX_CTK

SET_NEXT_SNS/BF7615BMXX_XXXX_CTK              ----- -----
  +--> _CTK_BF7615BMXX_XXXX_SET_PARA/BF7615BMXX_XXXX_CTK



PUBLIC SYMBOLS OF MODULE:  .\Output\BYD_MCU02D_BF7615BMXX_XXXX_V1_1_3 (?C_STARTUP)


      VALUE       CLASS    TYPE      PUBLIC SYMBOL NAME
      =================================================
*DEL*:00000000H   XDATA    BYTE      ?_UART_Rece_Check?BYTE
      01003460H   CODE     ---       ?C?CASTF
      01003497H   CODE     ---       ?C?CLDOPTR
      00000000H   NUMBER   ---       ?C?CODESEG
      010034D6H   CODE     ---       ?C?CSTOPTR
      010034C4H   CODE     ---       ?C?CSTPTR
      0100342CH   CODE     ---       ?C?FCASTC
      01003427H   CODE     ---       ?C?FCASTI
      01003422H   CODE     ---       ?C?FCASTL
      01003540H   CODE     ---       ?C?IILDX
      010034F8H   CODE     ---       ?C?IMUL
      0100372CH   CODE     ---       ?C?LCASE
      01003556H   CODE     ---       ?C?LMUL
      01003680H   CODE     ---       ?C?LNEG
      01003673H   CODE     ---       ?C?LNOT
      010036DCH   CODE     ---       ?C?LSHL
      010036FBH   CODE     ---       ?C?LSTKXDATA
      010036EFH   CODE     ---       ?C?LSTXDATA
      01003766H   CODE     ---       ?C?MEMSET
      0100350AH   CODE     ---       ?C?SIDIV
      0100368EH   CODE     ---       ?C?SLCMP
      010050B2H   CODE     ---       ?C?SLDIV
      010036C8H   CODE     ---       ?C?SLSHR
      01003792H   CODE     ---       ?C?UIDIV
      010036A4H   CODE     ---       ?C?ULCMP
      010035E1H   CODE     ---       ?C?ULDIV
      010036B5H   CODE     ---       ?C?ULSHR
      00000000H   NUMBER   ---       ?C?XDATASEG
      01004A87H   CODE     ---       ?C_START
      01000000H   CODE     ---       ?C_STARTUP
*DEL*:00000000H   CODE     ---       _Checkout
*DEL*:00000000H   CODE     ---       _CmdCloseRecvData
*DEL*:00000000H   CODE     ---       _CmdGetSendChr
*DEL*:00000000H   CODE     ---       _CmdRecv
      010040FBH   CODE     ---       _CTK_BF7615BMXX_XXXX_Get_KEYS_Touch
      01005259H   CODE     ---       _CTK_BF7615BMXX_XXXX_Set_Para
      01002789H   CODE     ---       _CTK_SNS_Renovate
*DEL*:00000000H   CODE     ---       _Delay_Ms
      01005329H   CODE     ---       _Delay_NOP
*DEL*:00000000H   CODE     ---       _htonl
LX51 LINKER/LOCATER V4.66.100.0                                                       04/23/2024  19:14:21  PAGE 8


*DEL*:00000000H   CODE     ---       _htons
      01004C8CH   CODE     ---       _KEY_NUM
      01000096H   CODE     ---       _Led_100usPool
      01004F78H   CODE     ---       _SM16xx_WriteOneByte
      01004BFAH   CODE     ---       _Timer0_Init
      01004E06H   CODE     ---       _Timer1_Init
*DEL*:00000000H   CODE     ---       _UART_Rece_Check
*SFR* 000000D0H.6 DATA     BIT       AC
*SFR* 000000E0H   DATA     BYTE      ACC
*SFR* 000000C5H   DATA     BYTE      ADC_RDATAH
*SFR* 000000C6H   DATA     BYTE      ADC_RDATAL
*SFR* 000000C3H   DATA     BYTE      ADC_SCAN_CFG
*SFR* 000000C1H   DATA     BYTE      ADC_SPT
*SFR* 000000C4H   DATA     BYTE      ADCCKC
      00000020H.0 BIT      BIT       adjust_done_flag
*SFR* 000000F0H   DATA     BYTE      B
      020000B5H   XDATA    ---       base_line
      010050F6H   CODE     ---       Base_Line_Init
      01004ACCH   CODE     ---       BF7615BMXX_XXXX_Set_Touch_Flag
      01004D0EH   CODE     ---       CFG_Check
      02000203H   XDATA    BYTE      CFG_Rb
      0100520AH   CODE     ---       CmdInit
*DEL*:00000000H   CODE     ---       CmdRecvPool
*DEL*:00000000H   CODE     ---       CmdSend
      01000005H   CODE     ---       CmdSend1sLoop
*DEL*:00000000H   CODE     ---       CmdSendDeviceStatusQuery
*SFR* 000000ACH   DATA     BYTE      CSD_RAWDATAH
*SFR* 000000ABH   DATA     BYTE      CSD_RAWDATAL
*SFR* 000000C9H   DATA     BYTE      CSD_START
      010037E7H   CODE     ---       CTK_BF7615BMXX_XXXX_Adjust_Int
      00000020H.1 BIT      BIT       ctk_circle_done
      01004349H   CODE     ---       CTK_Init
      01004973H   CODE     ---       CTK_ISR
      00000020H.3 BIT      BIT       ctk_para_done
      01004732H   CODE     ---       CTK_Set_Para
      02000133H   XDATA    WORD      ctk_soft_reset_count
      020001E0H   XDATA    WORD      ctk_soft_reset_max_count
      00000020H.2 BIT      BIT       ctk_start_flag
*SFR* 000000D0H.7 DATA     BIT       CY
*SFR* 000000F8H   DATA     BYTE      DATAA
*SFR* 00000080H   DATA     BYTE      DATAB
*SFR* 00000090H   DATA     BYTE      DATAC
*SFR* 000000B0H   DATA     BYTE      DATAE
*SFR* 000000C0H   DATA     BYTE      DATAF
*SFR* 000000C8H   DATA     BYTE      DATAG
*SFR* 000000D8H   DATA     BYTE      DATAH
      0100001EH   CODE     ---       Default_Set_IO
      01005351H   CODE     ---       DisplayKeyLed
*SFR* 000000B1H   DATA     BYTE      DP_CON
*SFR* 000000B9H   DATA     BYTE      DP_CON1
*SFR* 000000B2H   DATA     BYTE      DP_MODE
*SFR* 00000083H   DATA     BYTE      DPH
*SFR* 00000082H   DATA     BYTE      DPL
*SFR* 000000A8H.7 DATA     BIT       EA
*SFR* 000000A8H.1 DATA     BIT       ET0
*SFR* 000000A8H.3 DATA     BIT       ET1
*SFR* 000000A8H.0 DATA     BIT       EX0
*SFR* 000000A8H.2 DATA     BIT       EX1
*SFR* 000000C7H   DATA     BYTE      EXINT_STAT
*SFR* 000000D0H.5 DATA     BIT       F0
*SFR* 000000D0H.1 DATA     BIT       F1
      0100538DH   CONST    ---       FTH
      010052FAH   CODE     ---       Function_Init
      0200014FH   XDATA    ---       g_config
      02000138H   XDATA    ---       g_DisplayLed
LX51 LINKER/LOCATER V4.66.100.0                                                       04/23/2024  19:14:21  PAGE 9


      0200013DH   XDATA    ---       g_SysHardware
      02000157H   XDATA    ---       g_sysTimeCnt
      02000160H   XDATA    ---       g_View
      01004575H   CODE     ---       Get_Key_Code
      020001EDH   XDATA    BYTE      HuXiDengRunDuty
      020001E7H   XDATA    BYTE      HuXiDengRunDutyCnt
      020001ECH   XDATA    BYTE      HuXiDengRunStep
      020001EBH   XDATA    BYTE      HuXiDengRunTimeBasicCnt
*SFR* 00000088H.1 DATA     BIT       IE0
*SFR* 00000088H.3 DATA     BIT       IE1
*SFR* 000000A8H   DATA     BYTE      IEN0
*SFR* 000000E6H   DATA     BYTE      IEN1
*SFR* 000000E7H   DATA     BYTE      IEN2
*SFR* 000000E8H.2 DATA     BIT       IIC_ACK
*SFR* 000000E8H.4 DATA     BIT       IIC_AD
*SFR* 000000E8H.3 DATA     BIT       IIC_BF
*SFR* 000000E8H.0 DATA     BIT       IIC_RECOV
*SFR* 000000E8H.5 DATA     BIT       IIC_RW
*SFR* 000000E8H.7 DATA     BIT       IIC_START
*SFR* 000000E8H.6 DATA     BIT       IIC_STOP
*SFR* 000000E8H.1 DATA     BIT       IIC_WCOL
*SFR* 000000E3H   DATA     BYTE      IICADD
*SFR* 000000E4H   DATA     BYTE      IICBUF
*SFR* 000000E9H   DATA     BYTE      IICBUFFER
*SFR* 000000E5H   DATA     BYTE      IICCON
*SFR* 000000E8H   DATA     BYTE      IICSTAT
      01000003H   CODE     ---       Init_IO
*SFR* 000000AEH   DATA     BYTE      INT_PE_STAT
*SFR* 000000D5H   DATA     BYTE      INT_POBO_STAT
*SFR* 000000B8H   DATA     BYTE      IPL0
*SFR* 000000F6H   DATA     BYTE      IPL1
*SFR* 000000F4H   DATA     BYTE      IPL2
*SFR* 000000F1H   DATA     BYTE      IRCON1
*SFR* 000000E1H   DATA     BYTE      IRCON2
      00000021H.0 BIT      BIT       IsTouch
      02000204H   XDATA    BYTE      Key_Data
      01003B9AH   CODE     ---       Key_Function_Deal
      020001F1H   XDATA    ---       KeyData
      020000AAH   XDATA    DWORD     keys_flag_h
      020000B0H   XDATA    DWORD     keys_flag_l
      020001E9H   XDATA    BYTE      KeyScan_Step
*SFR* 000000B4H   DATA     BYTE      LED2_WIDTH
      0100516FH   CODE     ---       Led_All_Close
*DEL*:00000000H   CODE     ---       Led_All_Open
      010052BFH   CODE     ---       Led_init
      0200011FH   XDATA    WORD      long_key_clear_count
      00000020H.6 BIT      BIT       Low_Volotage_Flag
      00000020H.7 BIT      BIT       Low_Volotage_Flag_Confirm
      020001FEH   XDATA    WORD      Low_Volotage_Flag_Confirm_count
      020001FCH   XDATA    WORD      Low_Volotage_Flag_Count
      00000020H.5 BIT      BIT       Low_Volotage_Flag_First
      0100527DH   CODE     ---       LVDT_Init
      01005136H   CODE     ---       LVDT_ISR
      02000205H   XDATA    ---       m_LedData
      01005235H   CODE     ---       main
      010052A0H   CODE     ---       MCU_Init
      020000AEH   XDATA    BYTE      Mode
      0200012BH   XDATA    DWORD     mode_flag_h
      0200012FH   XDATA    DWORD     mode_flag_l
      020000E1H   XDATA    DWORD     muli_key_flag_h
      020000E5H   XDATA    DWORD     muli_key_flag_l
      02000126H   XDATA    BYTE      multi_key_count
      020000AFH   XDATA    BYTE      multi_key_reset_cnt
      0200008FH   XDATA    ---       n_base_line
      02000041H   XDATA    ---       n_base_line_reno_count
LX51 LINKER/LOCATER V4.66.100.0                                                       04/23/2024  19:14:21  PAGE 10


      020000E9H   XDATA    DWORD     open_sns_h
      020000EDH   XDATA    DWORD     open_sns_l
*SFR* 000000D0H.2 DATA     BIT       OV
      0200004EH   XDATA    ---       over_n_noise_count
      0200005BH   XDATA    ---       over_p_noise_count
*SFR* 000000D0H.0 DATA     BIT       P
*SFR* 000000A0H   DATA     BYTE      P2_XH
*SFR* 000000F8H.0 DATA     BIT       PA0
*SFR* 000000F8H.1 DATA     BIT       PA1
*SFR* 000000F8H.2 DATA     BIT       PA2
*SFR* 000000F8H.3 DATA     BIT       PA3
      00000020H.4 BIT      BIT       parallel_init_flag
      02000121H   XDATA    BYTE      parallel_mode
*SFR* 00000080H.0 DATA     BIT       PB0
*SFR* 00000080H.1 DATA     BIT       PB1
*SFR* 00000080H.2 DATA     BIT       PB2
*SFR* 00000080H.3 DATA     BIT       PB3
*SFR* 00000080H.4 DATA     BIT       PB4
*SFR* 00000080H.5 DATA     BIT       PB5
*SFR* 00000080H.6 DATA     BIT       PB6
*SFR* 00000080H.7 DATA     BIT       PB7
*SFR* 00000090H.0 DATA     BIT       PC0
*SFR* 00000090H.1 DATA     BIT       PC1
*SFR* 00000090H.2 DATA     BIT       PC2
*SFR* 00000090H.3 DATA     BIT       PC3
*SFR* 00000090H.4 DATA     BIT       PC4
*SFR* 00000090H.5 DATA     BIT       PC5
*SFR* 00000090H.6 DATA     BIT       PC6
*SFR* 00000090H.7 DATA     BIT       PC7
*SFR* 000000FEH   DATA     BYTE      PCD_BIT_ER
*SFR* 000000F9H   DATA     BYTE      PCD_BUF1
*SFR* 000000FAH   DATA     BYTE      PCD_BUF2
*SFR* 000000FBH   DATA     BYTE      PCD_CFG
*SFR* 000000FDH   DATA     BYTE      PCD_CFG2
*SFR* 000000FFH   DATA     BYTE      PCD_CFG3
*SFR* 000000FCH   DATA     BYTE      PCD_CMD
*SFR* 00000087H   DATA     BYTE      PCON
*SFR* 000000B0H.0 DATA     BIT       PE0
*SFR* 000000B0H.1 DATA     BIT       PE1
*SFR* 000000B0H.2 DATA     BIT       PE2
*SFR* 000000B0H.3 DATA     BIT       PE3
*SFR* 000000B0H.4 DATA     BIT       PE4
*SFR* 000000B0H.5 DATA     BIT       PE5
*SFR* 000000B0H.6 DATA     BIT       PE6
*SFR* 000000B0H.7 DATA     BIT       PE7
*SFR* 000000C0H.0 DATA     BIT       PF0
*SFR* 000000C0H.1 DATA     BIT       PF1
*SFR* 000000C0H.2 DATA     BIT       PF2
*SFR* 000000C0H.3 DATA     BIT       PF3
*SFR* 000000C0H.4 DATA     BIT       PF4
*SFR* 000000C0H.5 DATA     BIT       PF5
*SFR* 000000C0H.6 DATA     BIT       PF6
*SFR* 000000C0H.7 DATA     BIT       PF7
*SFR* 000000C8H.0 DATA     BIT       PG0
*SFR* 000000C8H.1 DATA     BIT       PG1
*SFR* 000000C8H.2 DATA     BIT       PG2
*SFR* 000000C8H.3 DATA     BIT       PG3
*SFR* 000000D8H.0 DATA     BIT       PH0
*SFR* 000000D8H.1 DATA     BIT       PH1
*SFR* 000000D8H.2 DATA     BIT       PH2
*SFR* 000000D8H.3 DATA     BIT       PH3
*SFR* 000000D8H.4 DATA     BIT       PH4
*SFR* 000000D8H.5 DATA     BIT       PH5
*SFR* 000000D8H.6 DATA     BIT       PH6
*SFR* 000000D8H.7 DATA     BIT       PH7
LX51 LINKER/LOCATER V4.66.100.0                                                       04/23/2024  19:14:21  PAGE 11


      01004B68H   CODE     ---       Project
      02000136H   XDATA    ---       pSM16106
*SFR* 000000D0H   DATA     BYTE      PSW
*SFR* 000000B8H.1 DATA     BIT       PT0
*SFR* 000000B8H.3 DATA     BIT       PT1
      010053EDH   CONST    ---       PUIV
*SFR* 000000CAH   DATA     BYTE      PULL_I_SEL
      02000027H   XDATA    ---       pull_i_value
      020000F1H   XDATA    WORD      pull_i_value_parallel
*SFR* 0000009CH   DATA     BYTE      PWM0_H_H
*SFR* 0000009BH   DATA     BYTE      PWM0_H_L
*SFR* 0000009AH   DATA     BYTE      PWM0_L_H
*SFR* 00000099H   DATA     BYTE      PWM0_L_L
*SFR* 000000A1H   DATA     BYTE      PWM1_H_H
*SFR* 0000009FH   DATA     BYTE      PWM1_H_L
*SFR* 0000009EH   DATA     BYTE      PWM1_L_H
*SFR* 0000009DH   DATA     BYTE      PWM1_L_L
*SFR* 000000A5H   DATA     BYTE      PWM2_H_H
*SFR* 000000A4H   DATA     BYTE      PWM2_H_L
*SFR* 000000A3H   DATA     BYTE      PWM2_L_H
*SFR* 000000A2H   DATA     BYTE      PWM2_L_L
*SFR* 000000AAH   DATA     BYTE      PWM3_H_H
*SFR* 000000A9H   DATA     BYTE      PWM3_H_L
*SFR* 000000A7H   DATA     BYTE      PWM3_L_H
*SFR* 000000A6H   DATA     BYTE      PWM3_L_L
*SFR* 000000B8H.0 DATA     BIT       PX0
*SFR* 000000B8H.2 DATA     BIT       PX2
      020001EEH   XDATA    WORD      r_SM16106
      020000F3H   XDATA    ---       raw_data
*SFR* 00000096H   DATA     BYTE      REG_ADDR
*SFR* 00000097H   DATA     BYTE      REG_DATA
      010051DCH   CODE     ---       Reset_Cnt_Add
*SFR* 000000D0H.3 DATA     BIT       RS0
*SFR* 000000D0H.4 DATA     BIT       RS1
*SFR* 000000AFH   DATA     BYTE      SCAN_START
*SFR* 000000B3H   DATA     BYTE      SCAN_WIDTH
*SFR* 000000EDH   DATA     BYTE      SCI_C1
*SFR* 000000BAH   DATA     BYTE      SCI_C2
*SFR* 000000BBH   DATA     BYTE      SCI_C3
*SFR* 000000BDH   DATA     BYTE      SCI_D
*SFR* 00000098H.1 DATA     BIT       SCI_F
*SFR* 00000098H.4 DATA     BIT       SCI_I
*SFR* 000000C2H   DATA     BYTE      SCI_INT_CLR
*SFR* 00000098H.2 DATA     BIT       SCI_N
*SFR* 00000098H.0 DATA     BIT       SCI_P
*SFR* 00000098H.5 DATA     BIT       SCI_RI
*SFR* 00000098H.3 DATA     BIT       SCI_RO
*SFR* 00000098H   DATA     BYTE      SCI_S1
*SFR* 000000BCH   DATA     BYTE      SCI_S2
*SFR* 00000098H.7 DATA     BIT       SCI_TE
*SFR* 00000098H.6 DATA     BIT       SCI_TF
      020001E3H   XDATA    WORD      sclen_soft_reset_count
      020001E5H   XDATA    WORD      sclen_soft_reset_max_count
      02000122H   XDATA    DWORD     sensor_flag_h
      02000127H   XDATA    DWORD     sensor_flag_l
      02000075H   XDATA    ---       sensor_open
      010051A6H   CODE     ---       Set_Next_SNS
      0100000EH   CODE     ---       Set_Sys_Clk
      0000001AH   IDATA    ---       SM16xx_Dat
      0000000EH   IDATA    ---       SM16xx_DatRs
      01004D8EH   CODE     ---       SM16xx_Init
      00000008H   IDATA    ---       SM16xx_KeyTab
      00000014H   IDATA    ---       SM16xx_KeyTabRS
      020001EAH   XDATA    BYTE      SM16xx_ScanCNT
      020001F0H   XDATA    BYTE      SM16xx_Step
LX51 LINKER/LOCATER V4.66.100.0                                                       04/23/2024  19:14:21  PAGE 12


      0100533DH   CODE     ---       SM16xx_WriteAll
      020001E8H   XDATA    BYTE      SM16xx_WriteAll_Cnt
      01005361H   CONST    ---       SNS
      02000202H   XDATA    BYTE      Sns_Count
      02000135H   XDATA    BYTE      sns_next
*SFR* 000000CBH   DATA     BYTE      SNS_SCAN_CFG1
*SFR* 000000CCH   DATA     BYTE      SNS_SCAN_CFG2
*SFR* 000000CDH   DATA     BYTE      SNS_SCAN_CFG3
*SFR* 0000008EH   DATA     BYTE      SOFT_RST
*SFR* 00000081H   DATA     BYTE      SP
*SFR* 000000B5H   DATA     BYTE      SPI_CFG1
*SFR* 000000B6H   DATA     BYTE      SPI_CFG2
*SFR* 000000BFH   DATA     BYTE      SPI_SPID
*SFR* 000000BEH   DATA     BYTE      SPI_STATE
*SFR* 000000CEH   DATA     BYTE      SPROG_ADDR_H
*SFR* 000000CFH   DATA     BYTE      SPROG_ADDR_L
*SFR* 000000D2H   DATA     BYTE      SPROG_CMD
*SFR* 000000D1H   DATA     BYTE      SPROG_DATA
*SFR* 000000D4H   DATA     BYTE      SPROG_RDATA
*SFR* 000000D3H   DATA     BYTE      SPROG_TIM
*SFR* 000000ADH   DATA     BYTE      SYS_CLK_CFG
*DEL*:00000000H   CODE     ---       SysTime100msPool
*DEL*:00000000H   CODE     ---       SysTime100us
*DEL*:00000000H   CODE     ---       SysTime10msPool
*DEL*:00000000H   CODE     ---       SysTime1ms
*DEL*:00000000H   CODE     ---       SysTime20msPool
*DEL*:00000000H   CODE     ---       SysTime500msPool
*DEL*:00000000H   CODE     ---       SysTimeInit
*SFR* 00000088H   DATA     BYTE      TCON
      020001E2H   XDATA    BYTE      Test
*SFR* 00000088H.5 DATA     BIT       TF0
*SFR* 00000088H.7 DATA     BIT       TF1
*SFR* 0000008CH   DATA     BYTE      TH0
      020001DCH   XDATA    BYTE      TH0_Reload
*SFR* 0000008DH   DATA     BYTE      TH1
      020001DDH   XDATA    BYTE      TH1_Reload
      0100501CH   CODE     ---       Time_Basic
      0100486BH   CODE     ---       Timer0_ISR
      01004ECCH   CODE     ---       Timer1_ISR
*SFR* 00000093H   DATA     BYTE      TIMER2_CFG
*SFR* 00000094H   DATA     BYTE      TIMER2_SET_H
*SFR* 00000095H   DATA     BYTE      TIMER2_SET_L
      010052DEH   CODE     ---       Timer2_WDT_ISR
*SFR* 00000084H   DATA     BYTE      TIMER3_CFG
*SFR* 00000085H   DATA     BYTE      TIMER3_SET_H
*SFR* 00000086H   DATA     BYTE      TIMER3_SET_L
*SFR* 0000008AH   DATA     BYTE      TL0
      020001DEH   XDATA    BYTE      TL0_Reload
*SFR* 0000008BH   DATA     BYTE      TL1
      020001DFH   XDATA    BYTE      TL1_Reload
*SFR* 00000089H   DATA     BYTE      TMOD
      0200001AH   XDATA    ---       touch_confirm_count
      02000082H   XDATA    ---       touch_left_count
*SFR* 00000088H.4 DATA     BIT       TR0
*SFR* 00000088H.6 DATA     BIT       TR1
      01000004H   CODE     ---       Trace_Mode_Init
*SFR* 000000EAH   DATA     BYTE      TRISA
*SFR* 000000EBH   DATA     BYTE      TRISB
*SFR* 000000ECH   DATA     BYTE      TRISC
*SFR* 000000EEH   DATA     BYTE      TRISE
*SFR* 000000EFH   DATA     BYTE      TRISF
*SFR* 000000F2H   DATA     BYTE      TRISG
*SFR* 000000F7H   DATA     BYTE      TRISH
*SFR* 000000DCH   DATA     BYTE      UART0_BDL
*SFR* 000000E2H   DATA     BYTE      UART0_BUF
LX51 LINKER/LOCATER V4.66.100.0                                                       04/23/2024  19:14:21  PAGE 13


*SFR* 000000DDH   DATA     BYTE      UART0_CON1
*SFR* 000000DEH   DATA     BYTE      UART0_CON2
      01004E73H   CODE     ---       UART0_Init
      01004FCDH   CODE     ---       UART0_ISR
*SFR* 000000DFH   DATA     BYTE      UART0_STATE
*SFR* 000000D6H   DATA     BYTE      UART1_BDL
*SFR* 000000DBH   DATA     BYTE      UART1_BUF
*SFR* 000000D7H   DATA     BYTE      UART1_CON1
*SFR* 000000D9H   DATA     BYTE      UART1_CON2
      01004F22H   CODE     ---       UART1_Init
      01005068H   CODE     ---       UART1_ISR
*SFR* 000000DAH   DATA     BYTE      UART1_STATE
      02000068H   XDATA    ---       under_2n_noise_count
      02000000H   XDATA    ---       under_n_noise_count
      0200000DH   XDATA    ---       under_p_noise_count
*SFR* 00000091H   DATA     BYTE      WDT_CTRL
*SFR* 00000092H   DATA     BYTE      WDT_EN
      01005312H   CODE     ---       WDT_Init



SYMBOL TABLE OF MODULE:  .\Output\BYD_MCU02D_BF7615BMXX_XXXX_V1_1_3 (?C_STARTUP)

      VALUE       REP       CLASS    TYPE      SYMBOL NAME
      ====================================================
      ---         MODULE    ---      ---       ?C_STARTUP
      01000000H   PUBLIC    CODE     ---       ?C_STARTUP
      000000E0H   SYMBOL    DATA     ---       ACC
      000000F0H   SYMBOL    DATA     ---       B
      00000083H   SYMBOL    DATA     ---       DPH
      00000082H   SYMBOL    DATA     ---       DPL
      00000000H   SYMBOL    NUMBER   ---       IBPSTACK
      00000100H   SYMBOL    NUMBER   ---       IBPSTACKTOP
      00000100H   SYMBOL    NUMBER   ---       IDATALEN
      01004A32H   SYMBOL    CODE     ---       IDATALOOP
      00000000H   SYMBOL    NUMBER   ---       PBPSTACK
      00000000H   SYMBOL    NUMBER   ---       PBPSTACKTOP
      00000000H   SYMBOL    NUMBER   ---       PDATALEN
      00000000H   SYMBOL    NUMBER   ---       PDATASTART
      00000000H   SYMBOL    NUMBER   ---       PPAGE
      00000001H   SYMBOL    NUMBER   ---       PPAGEENABLE
      000000A0H   SYMBOL    DATA     ---       PPAGE_SFR
      00000081H   SYMBOL    DATA     ---       SP
      01004A2FH   SYMBOL    CODE     ---       STARTUP1
      00000000H   SYMBOL    NUMBER   ---       XBPSTACK
      00000000H   SYMBOL    NUMBER   ---       XBPSTACKTOP
      00001000H   SYMBOL    NUMBER   ---       XDATALEN
      01004A3DH   SYMBOL    CODE     ---       XDATALOOP
      00000000H   SYMBOL    NUMBER   ---       XDATASTART
      01000000H   LINE      CODE     ---       #92
      01004A2FH   LINE      CODE     ---       #99
      01004A31H   LINE      CODE     ---       #100
      01004A32H   LINE      CODE     ---       #101
      01004A33H   LINE      CODE     ---       #102
      01004A35H   LINE      CODE     ---       #106
      01004A38H   LINE      CODE     ---       #107
      01004A3AH   LINE      CODE     ---       #111
      01004A3CH   LINE      CODE     ---       #113
      01004A3DH   LINE      CODE     ---       #114
      01004A3EH   LINE      CODE     ---       #115
      01004A3FH   LINE      CODE     ---       #116
      01004A41H   LINE      CODE     ---       #117
      01004A43H   LINE      CODE     ---       #121
      01004A46H   LINE      CODE     ---       #151
      01004A49H   LINE      CODE     ---       #155
LX51 LINKER/LOCATER V4.66.100.0                                                       04/23/2024  19:14:21  PAGE 14



      ---         MODULE    ---      ---       PROJECT
      00000021H.0 PUBLIC    BIT      BIT       IsTouch
      02000204H   PUBLIC    XDATA    BYTE      Key_Data
      01004B68H   PUBLIC    CODE     ---       Project
      000000BFH   SFRSYM    DATA     BYTE      SPI_SPID
      0000009DH   SFRSYM    DATA     BYTE      PWM1_L_L
      000000AEH   SFRSYM    DATA     BYTE      INT_PE_STAT
      000000A2H   SFRSYM    DATA     BYTE      PWM2_L_L
      000000C3H   SFRSYM    DATA     BYTE      ADC_SCAN_CFG
      000000A6H   SFRSYM    DATA     BYTE      PWM3_L_L
      000000A0H   SFRSYM    DATA     BYTE      P2_XH
      000000D0H.6 SFRSYM    DATA     BIT       AC
      000000BDH   SFRSYM    DATA     BYTE      SCI_D
      000000EAH   SFRSYM    DATA     BYTE      TRISA
      00000098H.1 SFRSYM    DATA     BIT       SCI_F
      000000E8H.2 SFRSYM    DATA     BIT       IIC_ACK
      000000A8H.7 SFRSYM    DATA     BIT       EA
      000000EBH   SFRSYM    DATA     BYTE      TRISB
      000000ECH   SFRSYM    DATA     BYTE      TRISC
      000000B9H   SFRSYM    DATA     BYTE      DP_CON1
      00000091H   SFRSYM    DATA     BYTE      WDT_CTRL
      00000098H.4 SFRSYM    DATA     BIT       SCI_I
      000000FBH   SFRSYM    DATA     BYTE      PCD_CFG
      000000EEH   SFRSYM    DATA     BYTE      TRISE
      000000D1H   SFRSYM    DATA     BYTE      SPROG_DATA
      000000B3H   SFRSYM    DATA     BYTE      SCAN_WIDTH
      000000EFH   SFRSYM    DATA     BYTE      TRISF
      000000F2H   SFRSYM    DATA     BYTE      TRISG
      000000ACH   SFRSYM    DATA     BYTE      CSD_RAWDATAH
      000000F7H   SFRSYM    DATA     BYTE      TRISH
      000000FCH   SFRSYM    DATA     BYTE      PCD_CMD
      000000A8H   SFRSYM    DATA     BYTE      IEN0
      00000098H.2 SFRSYM    DATA     BIT       SCI_N
      000000E6H   SFRSYM    DATA     BYTE      IEN1
      000000E7H   SFRSYM    DATA     BYTE      IEN2
      000000ABH   SFRSYM    DATA     BYTE      CSD_RAWDATAL
      00000098H.0 SFRSYM    DATA     BIT       SCI_P
      000000FEH   SFRSYM    DATA     BYTE      PCD_BIT_ER
      000000E9H   SFRSYM    DATA     BYTE      IICBUFFER
      000000E8H   SFRSYM    DATA     BYTE      IICSTAT
      000000B8H   SFRSYM    DATA     BYTE      IPL0
      000000F6H   SFRSYM    DATA     BYTE      IPL1
      000000AFH   SFRSYM    DATA     BYTE      SCAN_START
      000000F4H   SFRSYM    DATA     BYTE      IPL2
      0000008EH   SFRSYM    DATA     BYTE      SOFT_RST
      000000C4H   SFRSYM    DATA     BYTE      ADCCKC
      000000B2H   SFRSYM    DATA     BYTE      DP_MODE
      000000D0H.7 SFRSYM    DATA     BIT       CY
      000000D5H   SFRSYM    DATA     BYTE      INT_POBO_STAT
      000000E3H   SFRSYM    DATA     BYTE      IICADD
      000000DCH   SFRSYM    DATA     BYTE      UART0_BDL
      000000C1H   SFRSYM    DATA     BYTE      ADC_SPT
      000000D6H   SFRSYM    DATA     BYTE      UART1_BDL
      00000081H   SFRSYM    DATA     BYTE      SP
      000000D0H.2 SFRSYM    DATA     BIT       OV
      000000C7H   SFRSYM    DATA     BYTE      EXINT_STAT
      00000094H   SFRSYM    DATA     BYTE      TIMER2_SET_H
      000000E2H   SFRSYM    DATA     BYTE      UART0_BUF
      00000085H   SFRSYM    DATA     BYTE      TIMER3_SET_H
      000000DBH   SFRSYM    DATA     BYTE      UART1_BUF
      000000CAH   SFRSYM    DATA     BYTE      PULL_I_SEL
      000000F1H   SFRSYM    DATA     BYTE      IRCON1
      000000E1H   SFRSYM    DATA     BYTE      IRCON2
      00000095H   SFRSYM    DATA     BYTE      TIMER2_SET_L
LX51 LINKER/LOCATER V4.66.100.0                                                       04/23/2024  19:14:21  PAGE 15


      00000086H   SFRSYM    DATA     BYTE      TIMER3_SET_L
      00000087H   SFRSYM    DATA     BYTE      PCON
      000000CEH   SFRSYM    DATA     BYTE      SPROG_ADDR_H
      000000EDH   SFRSYM    DATA     BYTE      SCI_C1
      000000E4H   SFRSYM    DATA     BYTE      IICBUF
      000000BAH   SFRSYM    DATA     BYTE      SCI_C2
      00000089H   SFRSYM    DATA     BYTE      TMOD
      00000088H   SFRSYM    DATA     BYTE      TCON
      000000CFH   SFRSYM    DATA     BYTE      SPROG_ADDR_L
      000000BBH   SFRSYM    DATA     BYTE      SCI_C3
      000000E8H.0 SFRSYM    DATA     BIT       IIC_RECOV
      000000E5H   SFRSYM    DATA     BYTE      IICCON
      000000E8H.4 SFRSYM    DATA     BIT       IIC_AD
      000000FDH   SFRSYM    DATA     BYTE      PCD_CFG2
      000000FFH   SFRSYM    DATA     BYTE      PCD_CFG3
      000000E8H.3 SFRSYM    DATA     BIT       IIC_BF
      00000088H.1 SFRSYM    DATA     BIT       IE0
      00000088H.3 SFRSYM    DATA     BIT       IE1
      000000F8H.0 SFRSYM    DATA     BIT       PA0
      000000F0H   SFRSYM    DATA     BYTE      B
      00000080H.0 SFRSYM    DATA     BIT       PB0
      000000F8H.1 SFRSYM    DATA     BIT       PA1
      000000D2H   SFRSYM    DATA     BYTE      SPROG_CMD
      00000090H.0 SFRSYM    DATA     BIT       PC0
      00000080H.1 SFRSYM    DATA     BIT       PB1
      000000F8H.2 SFRSYM    DATA     BIT       PA2
      00000090H.1 SFRSYM    DATA     BIT       PC1
      00000080H.2 SFRSYM    DATA     BIT       PB2
      000000F8H.3 SFRSYM    DATA     BIT       PA3
      00000098H   SFRSYM    DATA     BYTE      SCI_S1
      000000B0H.0 SFRSYM    DATA     BIT       PE0
      00000090H.2 SFRSYM    DATA     BIT       PC2
      00000080H.3 SFRSYM    DATA     BIT       PB3
      000000BCH   SFRSYM    DATA     BYTE      SCI_S2
      000000E8H.7 SFRSYM    DATA     BIT       IIC_START
      000000C0H.0 SFRSYM    DATA     BIT       PF0
      000000B0H.1 SFRSYM    DATA     BIT       PE1
      00000090H.3 SFRSYM    DATA     BIT       PC3
      00000080H.4 SFRSYM    DATA     BIT       PB4
      000000C8H.0 SFRSYM    DATA     BIT       PG0
      000000C0H.1 SFRSYM    DATA     BIT       PF1
      000000B0H.2 SFRSYM    DATA     BIT       PE2
      00000090H.4 SFRSYM    DATA     BIT       PC4
      00000080H.5 SFRSYM    DATA     BIT       PB5
      000000F9H   SFRSYM    DATA     BYTE      PCD_BUF1
      000000E0H   SFRSYM    DATA     BYTE      ACC
      000000D8H.0 SFRSYM    DATA     BIT       PH0
      000000C8H.1 SFRSYM    DATA     BIT       PG1
      000000C0H.2 SFRSYM    DATA     BIT       PF2
      000000B0H.3 SFRSYM    DATA     BIT       PE3
      00000090H.5 SFRSYM    DATA     BIT       PC5
      00000080H.6 SFRSYM    DATA     BIT       PB6
      000000FAH   SFRSYM    DATA     BYTE      PCD_BUF2
      000000D8H.1 SFRSYM    DATA     BIT       PH1
      000000C8H.2 SFRSYM    DATA     BIT       PG2
      000000C0H.3 SFRSYM    DATA     BIT       PF3
      000000B0H.4 SFRSYM    DATA     BIT       PE4
      000000A8H.1 SFRSYM    DATA     BIT       ET0
      00000090H.6 SFRSYM    DATA     BIT       PC6
      00000080H.7 SFRSYM    DATA     BIT       PB7
      000000D8H.2 SFRSYM    DATA     BIT       PH2
      000000C8H.3 SFRSYM    DATA     BIT       PG3
      000000C0H.4 SFRSYM    DATA     BIT       PF4
      000000B0H.5 SFRSYM    DATA     BIT       PE5
      000000A8H.3 SFRSYM    DATA     BIT       ET1
LX51 LINKER/LOCATER V4.66.100.0                                                       04/23/2024  19:14:21  PAGE 16


      00000090H.7 SFRSYM    DATA     BIT       PC7
      00000088H.5 SFRSYM    DATA     BIT       TF0
      000000D8H.3 SFRSYM    DATA     BIT       PH3
      000000C0H.5 SFRSYM    DATA     BIT       PF5
      000000B0H.6 SFRSYM    DATA     BIT       PE6
      00000088H.7 SFRSYM    DATA     BIT       TF1
      000000C9H   SFRSYM    DATA     BYTE      CSD_START
      000000D8H.4 SFRSYM    DATA     BIT       PH4
      000000C0H.6 SFRSYM    DATA     BIT       PF6
      000000B0H.7 SFRSYM    DATA     BIT       PE7
      0000008CH   SFRSYM    DATA     BYTE      TH0
      000000D8H.5 SFRSYM    DATA     BIT       PH5
      000000C0H.7 SFRSYM    DATA     BIT       PF7
      000000A8H.0 SFRSYM    DATA     BIT       EX0
      0000008DH   SFRSYM    DATA     BYTE      TH1
      000000D8H.6 SFRSYM    DATA     BIT       PH6
      000000A8H.2 SFRSYM    DATA     BIT       EX1
      000000D8H.7 SFRSYM    DATA     BIT       PH7
      000000D0H.0 SFRSYM    DATA     BIT       P
      000000B5H   SFRSYM    DATA     BYTE      SPI_CFG1
      000000BEH   SFRSYM    DATA     BYTE      SPI_STATE
      000000B6H   SFRSYM    DATA     BYTE      SPI_CFG2
      0000008AH   SFRSYM    DATA     BYTE      TL0
      000000DFH   SFRSYM    DATA     BYTE      UART0_STATE
      0000008BH   SFRSYM    DATA     BYTE      TL1
      000000DAH   SFRSYM    DATA     BYTE      UART1_STATE
      000000B8H.1 SFRSYM    DATA     BIT       PT0
      000000D0H.3 SFRSYM    DATA     BIT       RS0
      000000B8H.3 SFRSYM    DATA     BIT       PT1
      000000B1H   SFRSYM    DATA     BYTE      DP_CON
      000000D0H.4 SFRSYM    DATA     BIT       RS1
      00000088H.4 SFRSYM    DATA     BIT       TR0
      00000088H.6 SFRSYM    DATA     BIT       TR1
      000000B8H.0 SFRSYM    DATA     BIT       PX0
      000000D3H   SFRSYM    DATA     BYTE      SPROG_TIM
      00000098H.7 SFRSYM    DATA     BIT       SCI_TE
      00000098H.6 SFRSYM    DATA     BIT       SCI_TF
      000000B8H.2 SFRSYM    DATA     BIT       PX2
      00000097H   SFRSYM    DATA     BYTE      REG_DATA
      00000098H.5 SFRSYM    DATA     BIT       SCI_RI
      000000D4H   SFRSYM    DATA     BYTE      SPROG_RDATA
      00000096H   SFRSYM    DATA     BYTE      REG_ADDR
      000000F8H   SFRSYM    DATA     BYTE      DATAA
      00000083H   SFRSYM    DATA     BYTE      DPH
      00000080H   SFRSYM    DATA     BYTE      DATAB
      000000CBH   SFRSYM    DATA     BYTE      SNS_SCAN_CFG1
      00000090H   SFRSYM    DATA     BYTE      DATAC
      000000E8H.5 SFRSYM    DATA     BIT       IIC_RW
      000000CCH   SFRSYM    DATA     BYTE      SNS_SCAN_CFG2
      000000C5H   SFRSYM    DATA     BYTE      ADC_RDATAH
      000000DDH   SFRSYM    DATA     BYTE      UART0_CON1
      000000CDH   SFRSYM    DATA     BYTE      SNS_SCAN_CFG3
      000000B0H   SFRSYM    DATA     BYTE      DATAE
      00000082H   SFRSYM    DATA     BYTE      DPL
      00000098H.3 SFRSYM    DATA     BIT       SCI_RO
      000000DEH   SFRSYM    DATA     BYTE      UART0_CON2
      000000D7H   SFRSYM    DATA     BYTE      UART1_CON1
      000000C0H   SFRSYM    DATA     BYTE      DATAF
      000000D9H   SFRSYM    DATA     BYTE      UART1_CON2
      000000C8H   SFRSYM    DATA     BYTE      DATAG
      000000D8H   SFRSYM    DATA     BYTE      DATAH
      000000C6H   SFRSYM    DATA     BYTE      ADC_RDATAL
      00000092H   SFRSYM    DATA     BYTE      WDT_EN
      00000093H   SFRSYM    DATA     BYTE      TIMER2_CFG
      00000084H   SFRSYM    DATA     BYTE      TIMER3_CFG
LX51 LINKER/LOCATER V4.66.100.0                                                       04/23/2024  19:14:21  PAGE 17


      000000B4H   SFRSYM    DATA     BYTE      LED2_WIDTH
      000000E8H.1 SFRSYM    DATA     BIT       IIC_WCOL
      000000ADH   SFRSYM    DATA     BYTE      SYS_CLK_CFG
      000000C2H   SFRSYM    DATA     BYTE      SCI_INT_CLR
      000000D0H.5 SFRSYM    DATA     BIT       F0
      0000009CH   SFRSYM    DATA     BYTE      PWM0_H_H
      000000D0H.1 SFRSYM    DATA     BIT       F1
      000000A1H   SFRSYM    DATA     BYTE      PWM1_H_H
      000000A5H   SFRSYM    DATA     BYTE      PWM2_H_H
      000000AAH   SFRSYM    DATA     BYTE      PWM3_H_H
      0000009BH   SFRSYM    DATA     BYTE      PWM0_H_L
      0000009AH   SFRSYM    DATA     BYTE      PWM0_L_H
      000000D0H   SFRSYM    DATA     BYTE      PSW
      0000009FH   SFRSYM    DATA     BYTE      PWM1_H_L
      0000009EH   SFRSYM    DATA     BYTE      PWM1_L_H
      000000A4H   SFRSYM    DATA     BYTE      PWM2_H_L
      000000A3H   SFRSYM    DATA     BYTE      PWM2_L_H
      000000A9H   SFRSYM    DATA     BYTE      PWM3_H_L
      000000A7H   SFRSYM    DATA     BYTE      PWM3_L_H
      000000E8H.6 SFRSYM    DATA     BIT       IIC_STOP
      00000099H   SFRSYM    DATA     BYTE      PWM0_L_L

      01004B68H   BLOCK     CODE     ---       LVL=0
      01004B68H   LINE      CODE     ---       #179
      01004B68H   LINE      CODE     ---       #180
      01004B68H   LINE      CODE     ---       #181
      01004B71H   LINE      CODE     ---       #183
      01004B71H   LINE      CODE     ---       #184
      01004B71H   LINE      CODE     ---       #185
      01004B78H   LINE      CODE     ---       #186
      01004B78H   LINE      CODE     ---       #188
      01004B85H   LINE      CODE     ---       #190
      01004B85H   LINE      CODE     ---       #191
      01004B85H   LINE      CODE     ---       #216
      01004B8BH   LINE      CODE     ---       #217
      01004B8DH   LINE      CODE     ---       #232
      01004B8DH   LINE      CODE     ---       #234
      01004B93H   LINE      CODE     ---       #236
      01004B96H   LINE      CODE     ---       #240
      01004B99H   LINE      CODE     ---       #242
      01004B99H   LINE      CODE     ---       #245
      01004B9FH   LINE      CODE     ---       #246
      01004BA2H   LINE      CODE     ---       #248
      01004BB1H   LINE      CODE     ---       #261
      01004BB4H   LINE      CODE     ---       #332
      01004BB4H   LINE      CODE     ---       #335
      01004BBEH   LINE      CODE     ---       #336
      01004BC7H   LINE      CODE     ---       #340
      01004BC7H   LINE      CODE     ---       #345
      01004BD1H   LINE      CODE     ---       #346
      01004BDBH   LINE      CODE     ---       #358
      01004BF6H   LINE      CODE     ---       #368
      01004BF9H   LINE      CODE     ---       #370
      01004BF9H   LINE      CODE     ---       #372
      01004BF9H   LINE      CODE     ---       #374
      ---         BLOCKEND  ---      ---       LVL=0

      ---         MODULE    ---      ---       TOUCH_MCU_INIT
      010052A0H   PUBLIC    CODE     ---       MCU_Init
      010052FAH   PUBLIC    CODE     ---       Function_Init
      01000004H   PUBLIC    CODE     ---       Trace_Mode_Init
      0100001EH   PUBLIC    CODE     ---       Default_Set_IO
      01000003H   PUBLIC    CODE     ---       Init_IO
      01004349H   PUBLIC    CODE     ---       CTK_Init
      01005312H   PUBLIC    CODE     ---       WDT_Init
LX51 LINKER/LOCATER V4.66.100.0                                                       04/23/2024  19:14:21  PAGE 18


      0100000EH   PUBLIC    CODE     ---       Set_Sys_Clk
      01004D0EH   PUBLIC    CODE     ---       CFG_Check
      000000BFH   SFRSYM    DATA     BYTE      SPI_SPID
      0000009DH   SFRSYM    DATA     BYTE      PWM1_L_L
      000000AEH   SFRSYM    DATA     BYTE      INT_PE_STAT
      000000A2H   SFRSYM    DATA     BYTE      PWM2_L_L
      000000C3H   SFRSYM    DATA     BYTE      ADC_SCAN_CFG
      000000A6H   SFRSYM    DATA     BYTE      PWM3_L_L
      000000A0H   SFRSYM    DATA     BYTE      P2_XH
      000000D0H.6 SFRSYM    DATA     BIT       AC
      000000BDH   SFRSYM    DATA     BYTE      SCI_D
      000000EAH   SFRSYM    DATA     BYTE      TRISA
      00000098H.1 SFRSYM    DATA     BIT       SCI_F
      000000E8H.2 SFRSYM    DATA     BIT       IIC_ACK
      000000A8H.7 SFRSYM    DATA     BIT       EA
      000000EBH   SFRSYM    DATA     BYTE      TRISB
      000000ECH   SFRSYM    DATA     BYTE      TRISC
      000000B9H   SFRSYM    DATA     BYTE      DP_CON1
      00000091H   SFRSYM    DATA     BYTE      WDT_CTRL
      00000098H.4 SFRSYM    DATA     BIT       SCI_I
      000000FBH   SFRSYM    DATA     BYTE      PCD_CFG
      000000EEH   SFRSYM    DATA     BYTE      TRISE
      000000D1H   SFRSYM    DATA     BYTE      SPROG_DATA
      000000B3H   SFRSYM    DATA     BYTE      SCAN_WIDTH
      000000EFH   SFRSYM    DATA     BYTE      TRISF
      000000F2H   SFRSYM    DATA     BYTE      TRISG
      000000ACH   SFRSYM    DATA     BYTE      CSD_RAWDATAH
      000000F7H   SFRSYM    DATA     BYTE      TRISH
      000000FCH   SFRSYM    DATA     BYTE      PCD_CMD
      000000A8H   SFRSYM    DATA     BYTE      IEN0
      00000098H.2 SFRSYM    DATA     BIT       SCI_N
      000000E6H   SFRSYM    DATA     BYTE      IEN1
      000000E7H   SFRSYM    DATA     BYTE      IEN2
      000000ABH   SFRSYM    DATA     BYTE      CSD_RAWDATAL
      00000098H.0 SFRSYM    DATA     BIT       SCI_P
      000000FEH   SFRSYM    DATA     BYTE      PCD_BIT_ER
      000000E9H   SFRSYM    DATA     BYTE      IICBUFFER
      000000E8H   SFRSYM    DATA     BYTE      IICSTAT
      000000B8H   SFRSYM    DATA     BYTE      IPL0
      000000F6H   SFRSYM    DATA     BYTE      IPL1
      000000AFH   SFRSYM    DATA     BYTE      SCAN_START
      000000F4H   SFRSYM    DATA     BYTE      IPL2
      0000008EH   SFRSYM    DATA     BYTE      SOFT_RST
      000000C4H   SFRSYM    DATA     BYTE      ADCCKC
      000000B2H   SFRSYM    DATA     BYTE      DP_MODE
      000000D0H.7 SFRSYM    DATA     BIT       CY
      000000D5H   SFRSYM    DATA     BYTE      INT_POBO_STAT
      000000E3H   SFRSYM    DATA     BYTE      IICADD
      000000DCH   SFRSYM    DATA     BYTE      UART0_BDL
      000000C1H   SFRSYM    DATA     BYTE      ADC_SPT
      000000D6H   SFRSYM    DATA     BYTE      UART1_BDL
      00000081H   SFRSYM    DATA     BYTE      SP
      000000D0H.2 SFRSYM    DATA     BIT       OV
      000000C7H   SFRSYM    DATA     BYTE      EXINT_STAT
      00000094H   SFRSYM    DATA     BYTE      TIMER2_SET_H
      000000E2H   SFRSYM    DATA     BYTE      UART0_BUF
      00000085H   SFRSYM    DATA     BYTE      TIMER3_SET_H
      000000DBH   SFRSYM    DATA     BYTE      UART1_BUF
      000000CAH   SFRSYM    DATA     BYTE      PULL_I_SEL
      000000F1H   SFRSYM    DATA     BYTE      IRCON1
      000000E1H   SFRSYM    DATA     BYTE      IRCON2
      00000095H   SFRSYM    DATA     BYTE      TIMER2_SET_L
      00000086H   SFRSYM    DATA     BYTE      TIMER3_SET_L
      00000087H   SFRSYM    DATA     BYTE      PCON
      000000CEH   SFRSYM    DATA     BYTE      SPROG_ADDR_H
LX51 LINKER/LOCATER V4.66.100.0                                                       04/23/2024  19:14:21  PAGE 19


      000000EDH   SFRSYM    DATA     BYTE      SCI_C1
      000000E4H   SFRSYM    DATA     BYTE      IICBUF
      000000BAH   SFRSYM    DATA     BYTE      SCI_C2
      00000089H   SFRSYM    DATA     BYTE      TMOD
      00000088H   SFRSYM    DATA     BYTE      TCON
      000000CFH   SFRSYM    DATA     BYTE      SPROG_ADDR_L
      000000BBH   SFRSYM    DATA     BYTE      SCI_C3
      000000E8H.0 SFRSYM    DATA     BIT       IIC_RECOV
      000000E5H   SFRSYM    DATA     BYTE      IICCON
      000000E8H.4 SFRSYM    DATA     BIT       IIC_AD
      000000FDH   SFRSYM    DATA     BYTE      PCD_CFG2
      000000FFH   SFRSYM    DATA     BYTE      PCD_CFG3
      000000E8H.3 SFRSYM    DATA     BIT       IIC_BF
      00000088H.1 SFRSYM    DATA     BIT       IE0
      00000088H.3 SFRSYM    DATA     BIT       IE1
      000000F8H.0 SFRSYM    DATA     BIT       PA0
      000000F0H   SFRSYM    DATA     BYTE      B
      00000080H.0 SFRSYM    DATA     BIT       PB0
      000000F8H.1 SFRSYM    DATA     BIT       PA1
      000000D2H   SFRSYM    DATA     BYTE      SPROG_CMD
      00000090H.0 SFRSYM    DATA     BIT       PC0
      00000080H.1 SFRSYM    DATA     BIT       PB1
      000000F8H.2 SFRSYM    DATA     BIT       PA2
      00000090H.1 SFRSYM    DATA     BIT       PC1
      00000080H.2 SFRSYM    DATA     BIT       PB2
      000000F8H.3 SFRSYM    DATA     BIT       PA3
      00000098H   SFRSYM    DATA     BYTE      SCI_S1
      000000B0H.0 SFRSYM    DATA     BIT       PE0
      00000090H.2 SFRSYM    DATA     BIT       PC2
      00000080H.3 SFRSYM    DATA     BIT       PB3
      000000BCH   SFRSYM    DATA     BYTE      SCI_S2
      000000E8H.7 SFRSYM    DATA     BIT       IIC_START
      000000C0H.0 SFRSYM    DATA     BIT       PF0
      000000B0H.1 SFRSYM    DATA     BIT       PE1
      00000090H.3 SFRSYM    DATA     BIT       PC3
      00000080H.4 SFRSYM    DATA     BIT       PB4
      000000C8H.0 SFRSYM    DATA     BIT       PG0
      000000C0H.1 SFRSYM    DATA     BIT       PF1
      000000B0H.2 SFRSYM    DATA     BIT       PE2
      00000090H.4 SFRSYM    DATA     BIT       PC4
      00000080H.5 SFRSYM    DATA     BIT       PB5
      000000F9H   SFRSYM    DATA     BYTE      PCD_BUF1
      000000E0H   SFRSYM    DATA     BYTE      ACC
      000000D8H.0 SFRSYM    DATA     BIT       PH0
      000000C8H.1 SFRSYM    DATA     BIT       PG1
      000000C0H.2 SFRSYM    DATA     BIT       PF2
      000000B0H.3 SFRSYM    DATA     BIT       PE3
      00000090H.5 SFRSYM    DATA     BIT       PC5
      00000080H.6 SFRSYM    DATA     BIT       PB6
      000000FAH   SFRSYM    DATA     BYTE      PCD_BUF2
      000000D8H.1 SFRSYM    DATA     BIT       PH1
      000000C8H.2 SFRSYM    DATA     BIT       PG2
      000000C0H.3 SFRSYM    DATA     BIT       PF3
      000000B0H.4 SFRSYM    DATA     BIT       PE4
      000000A8H.1 SFRSYM    DATA     BIT       ET0
      00000090H.6 SFRSYM    DATA     BIT       PC6
      00000080H.7 SFRSYM    DATA     BIT       PB7
      000000D8H.2 SFRSYM    DATA     BIT       PH2
      000000C8H.3 SFRSYM    DATA     BIT       PG3
      000000C0H.4 SFRSYM    DATA     BIT       PF4
      000000B0H.5 SFRSYM    DATA     BIT       PE5
      000000A8H.3 SFRSYM    DATA     BIT       ET1
      00000090H.7 SFRSYM    DATA     BIT       PC7
      00000088H.5 SFRSYM    DATA     BIT       TF0
      000000D8H.3 SFRSYM    DATA     BIT       PH3
LX51 LINKER/LOCATER V4.66.100.0                                                       04/23/2024  19:14:21  PAGE 20


      000000C0H.5 SFRSYM    DATA     BIT       PF5
      000000B0H.6 SFRSYM    DATA     BIT       PE6
      00000088H.7 SFRSYM    DATA     BIT       TF1
      000000C9H   SFRSYM    DATA     BYTE      CSD_START
      000000D8H.4 SFRSYM    DATA     BIT       PH4
      000000C0H.6 SFRSYM    DATA     BIT       PF6
      000000B0H.7 SFRSYM    DATA     BIT       PE7
      0000008CH   SFRSYM    DATA     BYTE      TH0
      000000D8H.5 SFRSYM    DATA     BIT       PH5
      000000C0H.7 SFRSYM    DATA     BIT       PF7
      000000A8H.0 SFRSYM    DATA     BIT       EX0
      0000008DH   SFRSYM    DATA     BYTE      TH1
      000000D8H.6 SFRSYM    DATA     BIT       PH6
      000000A8H.2 SFRSYM    DATA     BIT       EX1
      000000D8H.7 SFRSYM    DATA     BIT       PH7
      000000D0H.0 SFRSYM    DATA     BIT       P
      000000B5H   SFRSYM    DATA     BYTE      SPI_CFG1
      000000BEH   SFRSYM    DATA     BYTE      SPI_STATE
      000000B6H   SFRSYM    DATA     BYTE      SPI_CFG2
      0000008AH   SFRSYM    DATA     BYTE      TL0
      000000DFH   SFRSYM    DATA     BYTE      UART0_STATE
      0000008BH   SFRSYM    DATA     BYTE      TL1
      000000DAH   SFRSYM    DATA     BYTE      UART1_STATE
      000000B8H.1 SFRSYM    DATA     BIT       PT0
      000000D0H.3 SFRSYM    DATA     BIT       RS0
      000000B8H.3 SFRSYM    DATA     BIT       PT1
      000000B1H   SFRSYM    DATA     BYTE      DP_CON
      000000D0H.4 SFRSYM    DATA     BIT       RS1
      00000088H.4 SFRSYM    DATA     BIT       TR0
      00000088H.6 SFRSYM    DATA     BIT       TR1
      000000B8H.0 SFRSYM    DATA     BIT       PX0
      000000D3H   SFRSYM    DATA     BYTE      SPROG_TIM
      00000098H.7 SFRSYM    DATA     BIT       SCI_TE
      00000098H.6 SFRSYM    DATA     BIT       SCI_TF
      000000B8H.2 SFRSYM    DATA     BIT       PX2
      00000097H   SFRSYM    DATA     BYTE      REG_DATA
      00000098H.5 SFRSYM    DATA     BIT       SCI_RI
      000000D4H   SFRSYM    DATA     BYTE      SPROG_RDATA
      00000096H   SFRSYM    DATA     BYTE      REG_ADDR
      000000F8H   SFRSYM    DATA     BYTE      DATAA
      00000083H   SFRSYM    DATA     BYTE      DPH
      00000080H   SFRSYM    DATA     BYTE      DATAB
      000000CBH   SFRSYM    DATA     BYTE      SNS_SCAN_CFG1
      00000090H   SFRSYM    DATA     BYTE      DATAC
      000000E8H.5 SFRSYM    DATA     BIT       IIC_RW
      000000CCH   SFRSYM    DATA     BYTE      SNS_SCAN_CFG2
      000000C5H   SFRSYM    DATA     BYTE      ADC_RDATAH
      000000DDH   SFRSYM    DATA     BYTE      UART0_CON1
      000000CDH   SFRSYM    DATA     BYTE      SNS_SCAN_CFG3
      000000B0H   SFRSYM    DATA     BYTE      DATAE
      00000082H   SFRSYM    DATA     BYTE      DPL
      00000098H.3 SFRSYM    DATA     BIT       SCI_RO
      000000DEH   SFRSYM    DATA     BYTE      UART0_CON2
      000000D7H   SFRSYM    DATA     BYTE      UART1_CON1
      000000C0H   SFRSYM    DATA     BYTE      DATAF
      000000D9H   SFRSYM    DATA     BYTE      UART1_CON2
      000000C8H   SFRSYM    DATA     BYTE      DATAG
      000000D8H   SFRSYM    DATA     BYTE      DATAH
      000000C6H   SFRSYM    DATA     BYTE      ADC_RDATAL
      00000092H   SFRSYM    DATA     BYTE      WDT_EN
      00000093H   SFRSYM    DATA     BYTE      TIMER2_CFG
      00000084H   SFRSYM    DATA     BYTE      TIMER3_CFG
      000000B4H   SFRSYM    DATA     BYTE      LED2_WIDTH
      000000E8H.1 SFRSYM    DATA     BIT       IIC_WCOL
      000000ADH   SFRSYM    DATA     BYTE      SYS_CLK_CFG
LX51 LINKER/LOCATER V4.66.100.0                                                       04/23/2024  19:14:21  PAGE 21


      000000C2H   SFRSYM    DATA     BYTE      SCI_INT_CLR
      000000D0H.5 SFRSYM    DATA     BIT       F0
      0000009CH   SFRSYM    DATA     BYTE      PWM0_H_H
      000000D0H.1 SFRSYM    DATA     BIT       F1
      000000A1H   SFRSYM    DATA     BYTE      PWM1_H_H
      000000A5H   SFRSYM    DATA     BYTE      PWM2_H_H
      000000AAH   SFRSYM    DATA     BYTE      PWM3_H_H
      0000009BH   SFRSYM    DATA     BYTE      PWM0_H_L
      0000009AH   SFRSYM    DATA     BYTE      PWM0_L_H
      000000D0H   SFRSYM    DATA     BYTE      PSW
      0000009FH   SFRSYM    DATA     BYTE      PWM1_H_L
      0000009EH   SFRSYM    DATA     BYTE      PWM1_L_H
      000000A4H   SFRSYM    DATA     BYTE      PWM2_H_L
      000000A3H   SFRSYM    DATA     BYTE      PWM2_L_H
      000000A9H   SFRSYM    DATA     BYTE      PWM3_H_L
      000000A7H   SFRSYM    DATA     BYTE      PWM3_L_H
      000000E8H.6 SFRSYM    DATA     BIT       IIC_STOP
      00000099H   SFRSYM    DATA     BYTE      PWM0_L_L

      01004D0EH   BLOCK     CODE     ---       LVL=0
      01004D0EH   BLOCK     CODE     NEAR LAB  LVL=1
      020001BEH   SYMBOL    XDATA    BYTE      i
      0100544DH   SYMBOL    CONST    ---       add_cfg_Bit
      0100545BH   SYMBOL    CONST    ---       cfg_addr
      ---         BLOCKEND  ---      ---       LVL=1
      01004D0EH   LINE      CODE     ---       #11
      01004D0EH   LINE      CODE     ---       #12
      01004D0EH   LINE      CODE     ---       #13
      01004D13H   LINE      CODE     ---       #17
      01004D15H   LINE      CODE     ---       #18
      01004D1FH   LINE      CODE     ---       #19
      01004D1FH   LINE      CODE     ---       #20
      01004D22H   LINE      CODE     ---       #21
      01004D37H   LINE      CODE     ---       #22
      01004D4DH   LINE      CODE     ---       #23
      01004D53H   LINE      CODE     ---       #24
      01004D68H   LINE      CODE     ---       #25
      01004D68H   LINE      CODE     ---       #26
      01004D6BH   LINE      CODE     ---       #27
      01004D6BH   LINE      CODE     ---       #28
      01004D73H   LINE      CODE     ---       #31
      01004D76H   LINE      CODE     ---       #32
      01004D79H   LINE      CODE     ---       #33
      01004D7CH   LINE      CODE     ---       #34
      01004D82H   LINE      CODE     ---       #37
      01004D85H   LINE      CODE     ---       #38
      01004D87H   LINE      CODE     ---       #39
      01004D89H   LINE      CODE     ---       #41
      01004D8BH   LINE      CODE     ---       #42
      01004D8DH   LINE      CODE     ---       #43
      ---         BLOCKEND  ---      ---       LVL=0

      0100000EH   BLOCK     CODE     ---       LVL=0
      0100000EH   LINE      CODE     ---       #71
      0100000EH   LINE      CODE     ---       #72
      0100000EH   LINE      CODE     ---       #73
      01000014H   LINE      CODE     ---       #74
      01000017H   LINE      CODE     ---       #75
      ---         BLOCKEND  ---      ---       LVL=0

      01005312H   BLOCK     CODE     ---       LVL=0
      01005312H   LINE      CODE     ---       #136
      01005312H   LINE      CODE     ---       #137
      01005312H   LINE      CODE     ---       #140
      01005314H   LINE      CODE     ---       #141
LX51 LINKER/LOCATER V4.66.100.0                                                       04/23/2024  19:14:21  PAGE 22


      01005317H   LINE      CODE     ---       #142
      0100531DH   LINE      CODE     ---       #143
      01005320H   LINE      CODE     ---       #144
      01005323H   LINE      CODE     ---       #145
      01005326H   LINE      CODE     ---       #146
      01005328H   LINE      CODE     ---       #149
      ---         BLOCKEND  ---      ---       LVL=0

      01004349H   BLOCK     CODE     ---       LVL=0
      01004349H   LINE      CODE     ---       #161
      01004349H   LINE      CODE     ---       #162
      01004349H   LINE      CODE     ---       #166
      0100434BH   LINE      CODE     ---       #168
      0100434EH   LINE      CODE     ---       #170
      01004369H   LINE      CODE     ---       #171
      01004384H   LINE      CODE     ---       #172
      0100439FH   LINE      CODE     ---       #173
      010043B7H   LINE      CODE     ---       #174
      010043D2H   LINE      CODE     ---       #175
      010043EAH   LINE      CODE     ---       #177
      010043FEH   LINE      CODE     ---       #178
      01004419H   LINE      CODE     ---       #179
      01004434H   LINE      CODE     ---       #180
      0100444FH   LINE      CODE     ---       #181
      0100446AH   LINE      CODE     ---       #184
      0100447FH   LINE      CODE     ---       #185
      0100449AH   LINE      CODE     ---       #186
      010044B5H   LINE      CODE     ---       #187
      010044D0H   LINE      CODE     ---       #189
      010044E5H   LINE      CODE     ---       #190
      01004500H   LINE      CODE     ---       #192
      01004503H   LINE      CODE     ---       #193
      01004506H   LINE      CODE     ---       #194
      0100450CH   LINE      CODE     ---       #195
      01004512H   LINE      CODE     ---       #196
      01004518H   LINE      CODE     ---       #197
      01004529H   LINE      CODE     ---       #198
      01004532H   LINE      CODE     ---       #199
      0100453BH   LINE      CODE     ---       #200
      01004546H   LINE      CODE     ---       #201
      0100454CH   LINE      CODE     ---       #202
      01004552H   LINE      CODE     ---       #203
      01004555H   LINE      CODE     ---       #204
      0100455BH   LINE      CODE     ---       #206
      01004566H   LINE      CODE     ---       #207
      01004569H   LINE      CODE     ---       #208
      0100456CH   LINE      CODE     ---       #209
      01004572H   LINE      CODE     ---       #210
      01004574H   LINE      CODE     ---       #214
      ---         BLOCKEND  ---      ---       LVL=0

      01000003H   BLOCK     CODE     ---       LVL=0
      01000003H   LINE      CODE     ---       #224
      01000003H   LINE      CODE     ---       #225
      01000003H   LINE      CODE     ---       #240
      ---         BLOCKEND  ---      ---       LVL=0

      0100001EH   BLOCK     CODE     ---       LVL=0
      0100001EH   LINE      CODE     ---       #248
      0100001EH   LINE      CODE     ---       #249
      0100001EH   LINE      CODE     ---       #255
      01000020H   LINE      CODE     ---       #257
      01000023H   LINE      CODE     ---       #258
      01000026H   LINE      CODE     ---       #259
      01000028H   LINE      CODE     ---       #260
LX51 LINKER/LOCATER V4.66.100.0                                                       04/23/2024  19:14:21  PAGE 23


      0100002AH   LINE      CODE     ---       #262
      0100002DH   LINE      CODE     ---       #263
      0100002FH   LINE      CODE     ---       #264
      01000031H   LINE      CODE     ---       #265
      01000033H   LINE      CODE     ---       #267
      01000036H   LINE      CODE     ---       #268
      01000038H   LINE      CODE     ---       #269
      0100003AH   LINE      CODE     ---       #270
      0100003CH   LINE      CODE     ---       #272
      0100003FH   LINE      CODE     ---       #273
      01000041H   LINE      CODE     ---       #274
      01000043H   LINE      CODE     ---       #275
      01000045H   LINE      CODE     ---       #277
      01000048H   LINE      CODE     ---       #278
      0100004AH   LINE      CODE     ---       #279
      0100004CH   LINE      CODE     ---       #280
      0100004EH   LINE      CODE     ---       #282
      01000051H   LINE      CODE     ---       #283
      01000053H   LINE      CODE     ---       #284
      01000055H   LINE      CODE     ---       #285
      01000057H   LINE      CODE     ---       #287
      0100005AH   LINE      CODE     ---       #288
      0100005CH   LINE      CODE     ---       #289
      0100005EH   LINE      CODE     ---       #290
      01000060H   LINE      CODE     ---       #292
      01000062H   LINE      CODE     ---       #295
      ---         BLOCKEND  ---      ---       LVL=0

      01000004H   BLOCK     CODE     ---       LVL=0
      01000004H   LINE      CODE     ---       #304
      01000004H   LINE      CODE     ---       #305
      01000004H   LINE      CODE     ---       #314
      ---         BLOCKEND  ---      ---       LVL=0

      010052FAH   BLOCK     CODE     ---       LVL=0
      010052FAH   LINE      CODE     ---       #324
      010052FAH   LINE      CODE     ---       #325
      010052FAH   LINE      CODE     ---       #479
      010052FDH   LINE      CODE     ---       #485
      01005300H   LINE      CODE     ---       #536
      01005307H   LINE      CODE     ---       #544
      0100530EH   LINE      CODE     ---       #599
      01005311H   LINE      CODE     ---       #632
      ---         BLOCKEND  ---      ---       LVL=0

      010052A0H   BLOCK     CODE     ---       LVL=0
      010052A0H   LINE      CODE     ---       #640
      010052A0H   LINE      CODE     ---       #641
      010052A0H   LINE      CODE     ---       #643
      010052A6H   LINE      CODE     ---       #646
      010052A9H   LINE      CODE     ---       #649
      010052ACH   LINE      CODE     ---       #652
      010052AFH   LINE      CODE     ---       #655
      010052B2H   LINE      CODE     ---       #658
      010052B5H   LINE      CODE     ---       #661
      010052B8H   LINE      CODE     ---       #664
      010052BBH   LINE      CODE     ---       #667
      010052BEH   LINE      CODE     ---       #669
      ---         BLOCKEND  ---      ---       LVL=0

      ---         MODULE    ---      ---       CONFIG
      0200008FH   PUBLIC    XDATA    ---       n_base_line
      02000082H   PUBLIC    XDATA    ---       touch_left_count
      02000075H   PUBLIC    XDATA    ---       sensor_open
      02000068H   PUBLIC    XDATA    ---       under_2n_noise_count
LX51 LINKER/LOCATER V4.66.100.0                                                       04/23/2024  19:14:21  PAGE 24


      0200005BH   PUBLIC    XDATA    ---       over_p_noise_count
      0200004EH   PUBLIC    XDATA    ---       over_n_noise_count
      02000041H   PUBLIC    XDATA    ---       n_base_line_reno_count
      02000027H   PUBLIC    XDATA    ---       pull_i_value
      0200001AH   PUBLIC    XDATA    ---       touch_confirm_count
      0200000DH   PUBLIC    XDATA    ---       under_p_noise_count
      02000000H   PUBLIC    XDATA    ---       under_n_noise_count
      010053EDH   PUBLIC    CONST    ---       PUIV
      0100538DH   PUBLIC    CONST    ---       FTH
      01005361H   PUBLIC    CONST    ---       SNS
      000000BFH   SFRSYM    DATA     BYTE      SPI_SPID
      0000009DH   SFRSYM    DATA     BYTE      PWM1_L_L
      000000AEH   SFRSYM    DATA     BYTE      INT_PE_STAT
      000000A2H   SFRSYM    DATA     BYTE      PWM2_L_L
      000000C3H   SFRSYM    DATA     BYTE      ADC_SCAN_CFG
      000000A6H   SFRSYM    DATA     BYTE      PWM3_L_L
      000000A0H   SFRSYM    DATA     BYTE      P2_XH
      000000D0H.6 SFRSYM    DATA     BIT       AC
      000000BDH   SFRSYM    DATA     BYTE      SCI_D
      000000EAH   SFRSYM    DATA     BYTE      TRISA
      00000098H.1 SFRSYM    DATA     BIT       SCI_F
      000000E8H.2 SFRSYM    DATA     BIT       IIC_ACK
      000000A8H.7 SFRSYM    DATA     BIT       EA
      000000EBH   SFRSYM    DATA     BYTE      TRISB
      000000ECH   SFRSYM    DATA     BYTE      TRISC
      000000B9H   SFRSYM    DATA     BYTE      DP_CON1
      00000091H   SFRSYM    DATA     BYTE      WDT_CTRL
      00000098H.4 SFRSYM    DATA     BIT       SCI_I
      000000FBH   SFRSYM    DATA     BYTE      PCD_CFG
      000000EEH   SFRSYM    DATA     BYTE      TRISE
      000000D1H   SFRSYM    DATA     BYTE      SPROG_DATA
      000000B3H   SFRSYM    DATA     BYTE      SCAN_WIDTH
      000000EFH   SFRSYM    DATA     BYTE      TRISF
      000000F2H   SFRSYM    DATA     BYTE      TRISG
      000000ACH   SFRSYM    DATA     BYTE      CSD_RAWDATAH
      000000F7H   SFRSYM    DATA     BYTE      TRISH
      000000FCH   SFRSYM    DATA     BYTE      PCD_CMD
      000000A8H   SFRSYM    DATA     BYTE      IEN0
      00000098H.2 SFRSYM    DATA     BIT       SCI_N
      000000E6H   SFRSYM    DATA     BYTE      IEN1
      000000E7H   SFRSYM    DATA     BYTE      IEN2
      000000ABH   SFRSYM    DATA     BYTE      CSD_RAWDATAL
      00000098H.0 SFRSYM    DATA     BIT       SCI_P
      000000FEH   SFRSYM    DATA     BYTE      PCD_BIT_ER
      000000E9H   SFRSYM    DATA     BYTE      IICBUFFER
      000000E8H   SFRSYM    DATA     BYTE      IICSTAT
      000000B8H   SFRSYM    DATA     BYTE      IPL0
      000000F6H   SFRSYM    DATA     BYTE      IPL1
      000000AFH   SFRSYM    DATA     BYTE      SCAN_START
      000000F4H   SFRSYM    DATA     BYTE      IPL2
      0000008EH   SFRSYM    DATA     BYTE      SOFT_RST
      000000C4H   SFRSYM    DATA     BYTE      ADCCKC
      000000B2H   SFRSYM    DATA     BYTE      DP_MODE
      000000D0H.7 SFRSYM    DATA     BIT       CY
      000000D5H   SFRSYM    DATA     BYTE      INT_POBO_STAT
      000000E3H   SFRSYM    DATA     BYTE      IICADD
      000000DCH   SFRSYM    DATA     BYTE      UART0_BDL
      000000C1H   SFRSYM    DATA     BYTE      ADC_SPT
      000000D6H   SFRSYM    DATA     BYTE      UART1_BDL
      00000081H   SFRSYM    DATA     BYTE      SP
      000000D0H.2 SFRSYM    DATA     BIT       OV
      000000C7H   SFRSYM    DATA     BYTE      EXINT_STAT
      00000094H   SFRSYM    DATA     BYTE      TIMER2_SET_H
      000000E2H   SFRSYM    DATA     BYTE      UART0_BUF
      00000085H   SFRSYM    DATA     BYTE      TIMER3_SET_H
LX51 LINKER/LOCATER V4.66.100.0                                                       04/23/2024  19:14:21  PAGE 25


      000000DBH   SFRSYM    DATA     BYTE      UART1_BUF
      000000CAH   SFRSYM    DATA     BYTE      PULL_I_SEL
      000000F1H   SFRSYM    DATA     BYTE      IRCON1
      000000E1H   SFRSYM    DATA     BYTE      IRCON2
      00000095H   SFRSYM    DATA     BYTE      TIMER2_SET_L
      00000086H   SFRSYM    DATA     BYTE      TIMER3_SET_L
      00000087H   SFRSYM    DATA     BYTE      PCON
      000000CEH   SFRSYM    DATA     BYTE      SPROG_ADDR_H
      000000EDH   SFRSYM    DATA     BYTE      SCI_C1
      000000E4H   SFRSYM    DATA     BYTE      IICBUF
      000000BAH   SFRSYM    DATA     BYTE      SCI_C2
      00000089H   SFRSYM    DATA     BYTE      TMOD
      00000088H   SFRSYM    DATA     BYTE      TCON
      000000CFH   SFRSYM    DATA     BYTE      SPROG_ADDR_L
      000000BBH   SFRSYM    DATA     BYTE      SCI_C3
      000000E8H.0 SFRSYM    DATA     BIT       IIC_RECOV
      000000E5H   SFRSYM    DATA     BYTE      IICCON
      000000E8H.4 SFRSYM    DATA     BIT       IIC_AD
      000000FDH   SFRSYM    DATA     BYTE      PCD_CFG2
      000000FFH   SFRSYM    DATA     BYTE      PCD_CFG3
      000000E8H.3 SFRSYM    DATA     BIT       IIC_BF
      00000088H.1 SFRSYM    DATA     BIT       IE0
      00000088H.3 SFRSYM    DATA     BIT       IE1
      000000F8H.0 SFRSYM    DATA     BIT       PA0
      000000F0H   SFRSYM    DATA     BYTE      B
      00000080H.0 SFRSYM    DATA     BIT       PB0
      000000F8H.1 SFRSYM    DATA     BIT       PA1
      000000D2H   SFRSYM    DATA     BYTE      SPROG_CMD
      00000090H.0 SFRSYM    DATA     BIT       PC0
      00000080H.1 SFRSYM    DATA     BIT       PB1
      000000F8H.2 SFRSYM    DATA     BIT       PA2
      00000090H.1 SFRSYM    DATA     BIT       PC1
      00000080H.2 SFRSYM    DATA     BIT       PB2
      000000F8H.3 SFRSYM    DATA     BIT       PA3
      00000098H   SFRSYM    DATA     BYTE      SCI_S1
      000000B0H.0 SFRSYM    DATA     BIT       PE0
      00000090H.2 SFRSYM    DATA     BIT       PC2
      00000080H.3 SFRSYM    DATA     BIT       PB3
      000000BCH   SFRSYM    DATA     BYTE      SCI_S2
      000000E8H.7 SFRSYM    DATA     BIT       IIC_START
      000000C0H.0 SFRSYM    DATA     BIT       PF0
      000000B0H.1 SFRSYM    DATA     BIT       PE1
      00000090H.3 SFRSYM    DATA     BIT       PC3
      00000080H.4 SFRSYM    DATA     BIT       PB4
      000000C8H.0 SFRSYM    DATA     BIT       PG0
      000000C0H.1 SFRSYM    DATA     BIT       PF1
      000000B0H.2 SFRSYM    DATA     BIT       PE2
      00000090H.4 SFRSYM    DATA     BIT       PC4
      00000080H.5 SFRSYM    DATA     BIT       PB5
      000000F9H   SFRSYM    DATA     BYTE      PCD_BUF1
      000000E0H   SFRSYM    DATA     BYTE      ACC
      000000D8H.0 SFRSYM    DATA     BIT       PH0
      000000C8H.1 SFRSYM    DATA     BIT       PG1
      000000C0H.2 SFRSYM    DATA     BIT       PF2
      000000B0H.3 SFRSYM    DATA     BIT       PE3
      00000090H.5 SFRSYM    DATA     BIT       PC5
      00000080H.6 SFRSYM    DATA     BIT       PB6
      000000FAH   SFRSYM    DATA     BYTE      PCD_BUF2
      000000D8H.1 SFRSYM    DATA     BIT       PH1
      000000C8H.2 SFRSYM    DATA     BIT       PG2
      000000C0H.3 SFRSYM    DATA     BIT       PF3
      000000B0H.4 SFRSYM    DATA     BIT       PE4
      000000A8H.1 SFRSYM    DATA     BIT       ET0
      00000090H.6 SFRSYM    DATA     BIT       PC6
      00000080H.7 SFRSYM    DATA     BIT       PB7
LX51 LINKER/LOCATER V4.66.100.0                                                       04/23/2024  19:14:21  PAGE 26


      000000D8H.2 SFRSYM    DATA     BIT       PH2
      000000C8H.3 SFRSYM    DATA     BIT       PG3
      000000C0H.4 SFRSYM    DATA     BIT       PF4
      000000B0H.5 SFRSYM    DATA     BIT       PE5
      000000A8H.3 SFRSYM    DATA     BIT       ET1
      00000090H.7 SFRSYM    DATA     BIT       PC7
      00000088H.5 SFRSYM    DATA     BIT       TF0
      000000D8H.3 SFRSYM    DATA     BIT       PH3
      000000C0H.5 SFRSYM    DATA     BIT       PF5
      000000B0H.6 SFRSYM    DATA     BIT       PE6
      00000088H.7 SFRSYM    DATA     BIT       TF1
      000000C9H   SFRSYM    DATA     BYTE      CSD_START
      000000D8H.4 SFRSYM    DATA     BIT       PH4
      000000C0H.6 SFRSYM    DATA     BIT       PF6
      000000B0H.7 SFRSYM    DATA     BIT       PE7
      0000008CH   SFRSYM    DATA     BYTE      TH0
      000000D8H.5 SFRSYM    DATA     BIT       PH5
      000000C0H.7 SFRSYM    DATA     BIT       PF7
      000000A8H.0 SFRSYM    DATA     BIT       EX0
      0000008DH   SFRSYM    DATA     BYTE      TH1
      000000D8H.6 SFRSYM    DATA     BIT       PH6
      000000A8H.2 SFRSYM    DATA     BIT       EX1
      000000D8H.7 SFRSYM    DATA     BIT       PH7
      000000D0H.0 SFRSYM    DATA     BIT       P
      000000B5H   SFRSYM    DATA     BYTE      SPI_CFG1
      000000BEH   SFRSYM    DATA     BYTE      SPI_STATE
      000000B6H   SFRSYM    DATA     BYTE      SPI_CFG2
      0000008AH   SFRSYM    DATA     BYTE      TL0
      000000DFH   SFRSYM    DATA     BYTE      UART0_STATE
      0000008BH   SFRSYM    DATA     BYTE      TL1
      000000DAH   SFRSYM    DATA     BYTE      UART1_STATE
      000000B8H.1 SFRSYM    DATA     BIT       PT0
      000000D0H.3 SFRSYM    DATA     BIT       RS0
      000000B8H.3 SFRSYM    DATA     BIT       PT1
      000000B1H   SFRSYM    DATA     BYTE      DP_CON
      000000D0H.4 SFRSYM    DATA     BIT       RS1
      00000088H.4 SFRSYM    DATA     BIT       TR0
      00000088H.6 SFRSYM    DATA     BIT       TR1
      000000B8H.0 SFRSYM    DATA     BIT       PX0
      000000D3H   SFRSYM    DATA     BYTE      SPROG_TIM
      00000098H.7 SFRSYM    DATA     BIT       SCI_TE
      00000098H.6 SFRSYM    DATA     BIT       SCI_TF
      000000B8H.2 SFRSYM    DATA     BIT       PX2
      00000097H   SFRSYM    DATA     BYTE      REG_DATA
      00000098H.5 SFRSYM    DATA     BIT       SCI_RI
      000000D4H   SFRSYM    DATA     BYTE      SPROG_RDATA
      00000096H   SFRSYM    DATA     BYTE      REG_ADDR
      000000F8H   SFRSYM    DATA     BYTE      DATAA
      00000083H   SFRSYM    DATA     BYTE      DPH
      00000080H   SFRSYM    DATA     BYTE      DATAB
      000000CBH   SFRSYM    DATA     BYTE      SNS_SCAN_CFG1
      00000090H   SFRSYM    DATA     BYTE      DATAC
      000000E8H.5 SFRSYM    DATA     BIT       IIC_RW
      000000CCH   SFRSYM    DATA     BYTE      SNS_SCAN_CFG2
      000000C5H   SFRSYM    DATA     BYTE      ADC_RDATAH
      000000DDH   SFRSYM    DATA     BYTE      UART0_CON1
      000000CDH   SFRSYM    DATA     BYTE      SNS_SCAN_CFG3
      000000B0H   SFRSYM    DATA     BYTE      DATAE
      00000082H   SFRSYM    DATA     BYTE      DPL
      00000098H.3 SFRSYM    DATA     BIT       SCI_RO
      000000DEH   SFRSYM    DATA     BYTE      UART0_CON2
      000000D7H   SFRSYM    DATA     BYTE      UART1_CON1
      000000C0H   SFRSYM    DATA     BYTE      DATAF
      000000D9H   SFRSYM    DATA     BYTE      UART1_CON2
      000000C8H   SFRSYM    DATA     BYTE      DATAG
LX51 LINKER/LOCATER V4.66.100.0                                                       04/23/2024  19:14:21  PAGE 27


      000000D8H   SFRSYM    DATA     BYTE      DATAH
      000000C6H   SFRSYM    DATA     BYTE      ADC_RDATAL
      00000092H   SFRSYM    DATA     BYTE      WDT_EN
      00000093H   SFRSYM    DATA     BYTE      TIMER2_CFG
      00000084H   SFRSYM    DATA     BYTE      TIMER3_CFG
      000000B4H   SFRSYM    DATA     BYTE      LED2_WIDTH
      000000E8H.1 SFRSYM    DATA     BIT       IIC_WCOL
      000000ADH   SFRSYM    DATA     BYTE      SYS_CLK_CFG
      000000C2H   SFRSYM    DATA     BYTE      SCI_INT_CLR
      000000D0H.5 SFRSYM    DATA     BIT       F0
      0000009CH   SFRSYM    DATA     BYTE      PWM0_H_H
      000000D0H.1 SFRSYM    DATA     BIT       F1
      000000A1H   SFRSYM    DATA     BYTE      PWM1_H_H
      000000A5H   SFRSYM    DATA     BYTE      PWM2_H_H
      000000AAH   SFRSYM    DATA     BYTE      PWM3_H_H
      0000009BH   SFRSYM    DATA     BYTE      PWM0_H_L
      0000009AH   SFRSYM    DATA     BYTE      PWM0_L_H
      000000D0H   SFRSYM    DATA     BYTE      PSW
      0000009FH   SFRSYM    DATA     BYTE      PWM1_H_L
      0000009EH   SFRSYM    DATA     BYTE      PWM1_L_H
      000000A4H   SFRSYM    DATA     BYTE      PWM2_H_L
      000000A3H   SFRSYM    DATA     BYTE      PWM2_L_H
      000000A9H   SFRSYM    DATA     BYTE      PWM3_H_L
      000000A7H   SFRSYM    DATA     BYTE      PWM3_L_H
      000000E8H.6 SFRSYM    DATA     BIT       IIC_STOP
      00000099H   SFRSYM    DATA     BYTE      PWM0_L_L

      ---         MODULE    ---      ---       MAIN
      01005235H   PUBLIC    CODE     ---       main
      000000BFH   SFRSYM    DATA     BYTE      SPI_SPID
      0000009DH   SFRSYM    DATA     BYTE      PWM1_L_L
      000000AEH   SFRSYM    DATA     BYTE      INT_PE_STAT
      000000A2H   SFRSYM    DATA     BYTE      PWM2_L_L
      000000C3H   SFRSYM    DATA     BYTE      ADC_SCAN_CFG
      000000A6H   SFRSYM    DATA     BYTE      PWM3_L_L
      000000A0H   SFRSYM    DATA     BYTE      P2_XH
      000000D0H.6 SFRSYM    DATA     BIT       AC
      000000BDH   SFRSYM    DATA     BYTE      SCI_D
      000000EAH   SFRSYM    DATA     BYTE      TRISA
      00000098H.1 SFRSYM    DATA     BIT       SCI_F
      000000E8H.2 SFRSYM    DATA     BIT       IIC_ACK
      000000A8H.7 SFRSYM    DATA     BIT       EA
      000000EBH   SFRSYM    DATA     BYTE      TRISB
      000000ECH   SFRSYM    DATA     BYTE      TRISC
      000000B9H   SFRSYM    DATA     BYTE      DP_CON1
      00000091H   SFRSYM    DATA     BYTE      WDT_CTRL
      00000098H.4 SFRSYM    DATA     BIT       SCI_I
      000000FBH   SFRSYM    DATA     BYTE      PCD_CFG
      000000EEH   SFRSYM    DATA     BYTE      TRISE
      000000D1H   SFRSYM    DATA     BYTE      SPROG_DATA
      000000B3H   SFRSYM    DATA     BYTE      SCAN_WIDTH
      000000EFH   SFRSYM    DATA     BYTE      TRISF
      000000F2H   SFRSYM    DATA     BYTE      TRISG
      000000ACH   SFRSYM    DATA     BYTE      CSD_RAWDATAH
      000000F7H   SFRSYM    DATA     BYTE      TRISH
      000000FCH   SFRSYM    DATA     BYTE      PCD_CMD
      000000A8H   SFRSYM    DATA     BYTE      IEN0
      00000098H.2 SFRSYM    DATA     BIT       SCI_N
      000000E6H   SFRSYM    DATA     BYTE      IEN1
      000000E7H   SFRSYM    DATA     BYTE      IEN2
      000000ABH   SFRSYM    DATA     BYTE      CSD_RAWDATAL
      00000098H.0 SFRSYM    DATA     BIT       SCI_P
      000000FEH   SFRSYM    DATA     BYTE      PCD_BIT_ER
      000000E9H   SFRSYM    DATA     BYTE      IICBUFFER
      000000E8H   SFRSYM    DATA     BYTE      IICSTAT
LX51 LINKER/LOCATER V4.66.100.0                                                       04/23/2024  19:14:21  PAGE 28


      000000B8H   SFRSYM    DATA     BYTE      IPL0
      000000F6H   SFRSYM    DATA     BYTE      IPL1
      000000AFH   SFRSYM    DATA     BYTE      SCAN_START
      000000F4H   SFRSYM    DATA     BYTE      IPL2
      0000008EH   SFRSYM    DATA     BYTE      SOFT_RST
      000000C4H   SFRSYM    DATA     BYTE      ADCCKC
      000000B2H   SFRSYM    DATA     BYTE      DP_MODE
      000000D0H.7 SFRSYM    DATA     BIT       CY
      000000D5H   SFRSYM    DATA     BYTE      INT_POBO_STAT
      000000E3H   SFRSYM    DATA     BYTE      IICADD
      000000DCH   SFRSYM    DATA     BYTE      UART0_BDL
      000000C1H   SFRSYM    DATA     BYTE      ADC_SPT
      000000D6H   SFRSYM    DATA     BYTE      UART1_BDL
      00000081H   SFRSYM    DATA     BYTE      SP
      000000D0H.2 SFRSYM    DATA     BIT       OV
      000000C7H   SFRSYM    DATA     BYTE      EXINT_STAT
      00000094H   SFRSYM    DATA     BYTE      TIMER2_SET_H
      000000E2H   SFRSYM    DATA     BYTE      UART0_BUF
      00000085H   SFRSYM    DATA     BYTE      TIMER3_SET_H
      000000DBH   SFRSYM    DATA     BYTE      UART1_BUF
      000000CAH   SFRSYM    DATA     BYTE      PULL_I_SEL
      000000F1H   SFRSYM    DATA     BYTE      IRCON1
      000000E1H   SFRSYM    DATA     BYTE      IRCON2
      00000095H   SFRSYM    DATA     BYTE      TIMER2_SET_L
      00000086H   SFRSYM    DATA     BYTE      TIMER3_SET_L
      00000087H   SFRSYM    DATA     BYTE      PCON
      000000CEH   SFRSYM    DATA     BYTE      SPROG_ADDR_H
      000000EDH   SFRSYM    DATA     BYTE      SCI_C1
      000000E4H   SFRSYM    DATA     BYTE      IICBUF
      000000BAH   SFRSYM    DATA     BYTE      SCI_C2
      00000089H   SFRSYM    DATA     BYTE      TMOD
      00000088H   SFRSYM    DATA     BYTE      TCON
      000000CFH   SFRSYM    DATA     BYTE      SPROG_ADDR_L
      000000BBH   SFRSYM    DATA     BYTE      SCI_C3
      000000E8H.0 SFRSYM    DATA     BIT       IIC_RECOV
      000000E5H   SFRSYM    DATA     BYTE      IICCON
      000000E8H.4 SFRSYM    DATA     BIT       IIC_AD
      000000FDH   SFRSYM    DATA     BYTE      PCD_CFG2
      000000FFH   SFRSYM    DATA     BYTE      PCD_CFG3
      000000E8H.3 SFRSYM    DATA     BIT       IIC_BF
      00000088H.1 SFRSYM    DATA     BIT       IE0
      00000088H.3 SFRSYM    DATA     BIT       IE1
      000000F8H.0 SFRSYM    DATA     BIT       PA0
      000000F0H   SFRSYM    DATA     BYTE      B
      00000080H.0 SFRSYM    DATA     BIT       PB0
      000000F8H.1 SFRSYM    DATA     BIT       PA1
      000000D2H   SFRSYM    DATA     BYTE      SPROG_CMD
      00000090H.0 SFRSYM    DATA     BIT       PC0
      00000080H.1 SFRSYM    DATA     BIT       PB1
      000000F8H.2 SFRSYM    DATA     BIT       PA2
      00000090H.1 SFRSYM    DATA     BIT       PC1
      00000080H.2 SFRSYM    DATA     BIT       PB2
      000000F8H.3 SFRSYM    DATA     BIT       PA3
      00000098H   SFRSYM    DATA     BYTE      SCI_S1
      000000B0H.0 SFRSYM    DATA     BIT       PE0
      00000090H.2 SFRSYM    DATA     BIT       PC2
      00000080H.3 SFRSYM    DATA     BIT       PB3
      000000BCH   SFRSYM    DATA     BYTE      SCI_S2
      000000E8H.7 SFRSYM    DATA     BIT       IIC_START
      000000C0H.0 SFRSYM    DATA     BIT       PF0
      000000B0H.1 SFRSYM    DATA     BIT       PE1
      00000090H.3 SFRSYM    DATA     BIT       PC3
      00000080H.4 SFRSYM    DATA     BIT       PB4
      000000C8H.0 SFRSYM    DATA     BIT       PG0
      000000C0H.1 SFRSYM    DATA     BIT       PF1
LX51 LINKER/LOCATER V4.66.100.0                                                       04/23/2024  19:14:21  PAGE 29


      000000B0H.2 SFRSYM    DATA     BIT       PE2
      00000090H.4 SFRSYM    DATA     BIT       PC4
      00000080H.5 SFRSYM    DATA     BIT       PB5
      000000F9H   SFRSYM    DATA     BYTE      PCD_BUF1
      000000E0H   SFRSYM    DATA     BYTE      ACC
      000000D8H.0 SFRSYM    DATA     BIT       PH0
      000000C8H.1 SFRSYM    DATA     BIT       PG1
      000000C0H.2 SFRSYM    DATA     BIT       PF2
      000000B0H.3 SFRSYM    DATA     BIT       PE3
      00000090H.5 SFRSYM    DATA     BIT       PC5
      00000080H.6 SFRSYM    DATA     BIT       PB6
      000000FAH   SFRSYM    DATA     BYTE      PCD_BUF2
      000000D8H.1 SFRSYM    DATA     BIT       PH1
      000000C8H.2 SFRSYM    DATA     BIT       PG2
      000000C0H.3 SFRSYM    DATA     BIT       PF3
      000000B0H.4 SFRSYM    DATA     BIT       PE4
      000000A8H.1 SFRSYM    DATA     BIT       ET0
      00000090H.6 SFRSYM    DATA     BIT       PC6
      00000080H.7 SFRSYM    DATA     BIT       PB7
      000000D8H.2 SFRSYM    DATA     BIT       PH2
      000000C8H.3 SFRSYM    DATA     BIT       PG3
      000000C0H.4 SFRSYM    DATA     BIT       PF4
      000000B0H.5 SFRSYM    DATA     BIT       PE5
      000000A8H.3 SFRSYM    DATA     BIT       ET1
      00000090H.7 SFRSYM    DATA     BIT       PC7
      00000088H.5 SFRSYM    DATA     BIT       TF0
      000000D8H.3 SFRSYM    DATA     BIT       PH3
      000000C0H.5 SFRSYM    DATA     BIT       PF5
      000000B0H.6 SFRSYM    DATA     BIT       PE6
      00000088H.7 SFRSYM    DATA     BIT       TF1
      000000C9H   SFRSYM    DATA     BYTE      CSD_START
      000000D8H.4 SFRSYM    DATA     BIT       PH4
      000000C0H.6 SFRSYM    DATA     BIT       PF6
      000000B0H.7 SFRSYM    DATA     BIT       PE7
      0000008CH   SFRSYM    DATA     BYTE      TH0
      000000D8H.5 SFRSYM    DATA     BIT       PH5
      000000C0H.7 SFRSYM    DATA     BIT       PF7
      000000A8H.0 SFRSYM    DATA     BIT       EX0
      0000008DH   SFRSYM    DATA     BYTE      TH1
      000000D8H.6 SFRSYM    DATA     BIT       PH6
      000000A8H.2 SFRSYM    DATA     BIT       EX1
      000000D8H.7 SFRSYM    DATA     BIT       PH7
      000000D0H.0 SFRSYM    DATA     BIT       P
      000000B5H   SFRSYM    DATA     BYTE      SPI_CFG1
      000000BEH   SFRSYM    DATA     BYTE      SPI_STATE
      000000B6H   SFRSYM    DATA     BYTE      SPI_CFG2
      0000008AH   SFRSYM    DATA     BYTE      TL0
      000000DFH   SFRSYM    DATA     BYTE      UART0_STATE
      0000008BH   SFRSYM    DATA     BYTE      TL1
      000000DAH   SFRSYM    DATA     BYTE      UART1_STATE
      000000B8H.1 SFRSYM    DATA     BIT       PT0
      000000D0H.3 SFRSYM    DATA     BIT       RS0
      000000B8H.3 SFRSYM    DATA     BIT       PT1
      000000B1H   SFRSYM    DATA     BYTE      DP_CON
      000000D0H.4 SFRSYM    DATA     BIT       RS1
      00000088H.4 SFRSYM    DATA     BIT       TR0
      00000088H.6 SFRSYM    DATA     BIT       TR1
      000000B8H.0 SFRSYM    DATA     BIT       PX0
      000000D3H   SFRSYM    DATA     BYTE      SPROG_TIM
      00000098H.7 SFRSYM    DATA     BIT       SCI_TE
      00000098H.6 SFRSYM    DATA     BIT       SCI_TF
      000000B8H.2 SFRSYM    DATA     BIT       PX2
      00000097H   SFRSYM    DATA     BYTE      REG_DATA
      00000098H.5 SFRSYM    DATA     BIT       SCI_RI
      000000D4H   SFRSYM    DATA     BYTE      SPROG_RDATA
LX51 LINKER/LOCATER V4.66.100.0                                                       04/23/2024  19:14:21  PAGE 30


      00000096H   SFRSYM    DATA     BYTE      REG_ADDR
      000000F8H   SFRSYM    DATA     BYTE      DATAA
      00000083H   SFRSYM    DATA     BYTE      DPH
      00000080H   SFRSYM    DATA     BYTE      DATAB
      000000CBH   SFRSYM    DATA     BYTE      SNS_SCAN_CFG1
      00000090H   SFRSYM    DATA     BYTE      DATAC
      000000E8H.5 SFRSYM    DATA     BIT       IIC_RW
      000000CCH   SFRSYM    DATA     BYTE      SNS_SCAN_CFG2
      000000C5H   SFRSYM    DATA     BYTE      ADC_RDATAH
      000000DDH   SFRSYM    DATA     BYTE      UART0_CON1
      000000CDH   SFRSYM    DATA     BYTE      SNS_SCAN_CFG3
      000000B0H   SFRSYM    DATA     BYTE      DATAE
      00000082H   SFRSYM    DATA     BYTE      DPL
      00000098H.3 SFRSYM    DATA     BIT       SCI_RO
      000000DEH   SFRSYM    DATA     BYTE      UART0_CON2
      000000D7H   SFRSYM    DATA     BYTE      UART1_CON1
      000000C0H   SFRSYM    DATA     BYTE      DATAF
      000000D9H   SFRSYM    DATA     BYTE      UART1_CON2
      000000C8H   SFRSYM    DATA     BYTE      DATAG
      000000D8H   SFRSYM    DATA     BYTE      DATAH
      000000C6H   SFRSYM    DATA     BYTE      ADC_RDATAL
      00000092H   SFRSYM    DATA     BYTE      WDT_EN
      00000093H   SFRSYM    DATA     BYTE      TIMER2_CFG
      00000084H   SFRSYM    DATA     BYTE      TIMER3_CFG
      000000B4H   SFRSYM    DATA     BYTE      LED2_WIDTH
      000000E8H.1 SFRSYM    DATA     BIT       IIC_WCOL
      000000ADH   SFRSYM    DATA     BYTE      SYS_CLK_CFG
      000000C2H   SFRSYM    DATA     BYTE      SCI_INT_CLR
      000000D0H.5 SFRSYM    DATA     BIT       F0
      0000009CH   SFRSYM    DATA     BYTE      PWM0_H_H
      000000D0H.1 SFRSYM    DATA     BIT       F1
      000000A1H   SFRSYM    DATA     BYTE      PWM1_H_H
      000000A5H   SFRSYM    DATA     BYTE      PWM2_H_H
      000000AAH   SFRSYM    DATA     BYTE      PWM3_H_H
      0000009BH   SFRSYM    DATA     BYTE      PWM0_H_L
      0000009AH   SFRSYM    DATA     BYTE      PWM0_L_H
      000000D0H   SFRSYM    DATA     BYTE      PSW
      0000009FH   SFRSYM    DATA     BYTE      PWM1_H_L
      0000009EH   SFRSYM    DATA     BYTE      PWM1_L_H
      000000A4H   SFRSYM    DATA     BYTE      PWM2_H_L
      000000A3H   SFRSYM    DATA     BYTE      PWM2_L_H
      000000A9H   SFRSYM    DATA     BYTE      PWM3_H_L
      000000A7H   SFRSYM    DATA     BYTE      PWM3_L_H
      000000E8H.6 SFRSYM    DATA     BIT       IIC_STOP
      00000099H   SFRSYM    DATA     BYTE      PWM0_L_L

      01005235H   BLOCK     CODE     ---       LVL=0
      01005235H   LINE      CODE     ---       #8
      01005235H   LINE      CODE     ---       #9
      01005235H   LINE      CODE     ---       #11
      01005238H   LINE      CODE     ---       #13
      0100523EH   LINE      CODE     ---       #15
      01005241H   LINE      CODE     ---       #16
      01005244H   LINE      CODE     ---       #17
      01005247H   LINE      CODE     ---       #19
      0100524AH   LINE      CODE     ---       #21
      0100524AH   LINE      CODE     ---       #22
      0100524AH   LINE      CODE     ---       #24
      0100524DH   LINE      CODE     ---       #27
      01005250H   LINE      CODE     ---       #28
      01005250H   LINE      CODE     ---       #30
      01005253H   LINE      CODE     ---       #31
      01005253H   LINE      CODE     ---       #35
      01005256H   LINE      CODE     ---       #48
      ---         BLOCKEND  ---      ---       LVL=0
LX51 LINKER/LOCATER V4.66.100.0                                                       04/23/2024  19:14:21  PAGE 31



      ---         MODULE    ---      ---       BF7615BMXX_XXXX_API_TIMER
      020001E5H   PUBLIC    XDATA    WORD      sclen_soft_reset_max_count
      020001E3H   PUBLIC    XDATA    WORD      sclen_soft_reset_count
      020001E2H   PUBLIC    XDATA    BYTE      Test
      020001E0H   PUBLIC    XDATA    WORD      ctk_soft_reset_max_count
      020001DFH   PUBLIC    XDATA    BYTE      TL1_Reload
      020001DEH   PUBLIC    XDATA    BYTE      TL0_Reload
      020001DDH   PUBLIC    XDATA    BYTE      TH1_Reload
      020001DCH   PUBLIC    XDATA    BYTE      TH0_Reload
      010052DEH   PUBLIC    CODE     ---       Timer2_WDT_ISR
      01004ECCH   PUBLIC    CODE     ---       Timer1_ISR
      01004E06H   PUBLIC    CODE     ---       _Timer1_Init
      0100486BH   PUBLIC    CODE     ---       Timer0_ISR
      01004BFAH   PUBLIC    CODE     ---       _Timer0_Init
      010051DCH   PUBLIC    CODE     ---       Reset_Cnt_Add
      000000BFH   SFRSYM    DATA     BYTE      SPI_SPID
      0000009DH   SFRSYM    DATA     BYTE      PWM1_L_L
      000000AEH   SFRSYM    DATA     BYTE      INT_PE_STAT
      000000A2H   SFRSYM    DATA     BYTE      PWM2_L_L
      000000C3H   SFRSYM    DATA     BYTE      ADC_SCAN_CFG
      000000A6H   SFRSYM    DATA     BYTE      PWM3_L_L
      000000A0H   SFRSYM    DATA     BYTE      P2_XH
      000000D0H.6 SFRSYM    DATA     BIT       AC
      000000BDH   SFRSYM    DATA     BYTE      SCI_D
      000000EAH   SFRSYM    DATA     BYTE      TRISA
      00000098H.1 SFRSYM    DATA     BIT       SCI_F
      000000E8H.2 SFRSYM    DATA     BIT       IIC_ACK
      000000A8H.7 SFRSYM    DATA     BIT       EA
      000000EBH   SFRSYM    DATA     BYTE      TRISB
      000000ECH   SFRSYM    DATA     BYTE      TRISC
      000000B9H   SFRSYM    DATA     BYTE      DP_CON1
      00000091H   SFRSYM    DATA     BYTE      WDT_CTRL
      00000098H.4 SFRSYM    DATA     BIT       SCI_I
      000000FBH   SFRSYM    DATA     BYTE      PCD_CFG
      000000EEH   SFRSYM    DATA     BYTE      TRISE
      000000D1H   SFRSYM    DATA     BYTE      SPROG_DATA
      000000B3H   SFRSYM    DATA     BYTE      SCAN_WIDTH
      000000EFH   SFRSYM    DATA     BYTE      TRISF
      000000F2H   SFRSYM    DATA     BYTE      TRISG
      000000ACH   SFRSYM    DATA     BYTE      CSD_RAWDATAH
      000000F7H   SFRSYM    DATA     BYTE      TRISH
      000000FCH   SFRSYM    DATA     BYTE      PCD_CMD
      000000A8H   SFRSYM    DATA     BYTE      IEN0
      00000098H.2 SFRSYM    DATA     BIT       SCI_N
      000000E6H   SFRSYM    DATA     BYTE      IEN1
      000000E7H   SFRSYM    DATA     BYTE      IEN2
      000000ABH   SFRSYM    DATA     BYTE      CSD_RAWDATAL
      00000098H.0 SFRSYM    DATA     BIT       SCI_P
      000000FEH   SFRSYM    DATA     BYTE      PCD_BIT_ER
      000000E9H   SFRSYM    DATA     BYTE      IICBUFFER
      000000E8H   SFRSYM    DATA     BYTE      IICSTAT
      000000B8H   SFRSYM    DATA     BYTE      IPL0
      000000F6H   SFRSYM    DATA     BYTE      IPL1
      000000AFH   SFRSYM    DATA     BYTE      SCAN_START
      000000F4H   SFRSYM    DATA     BYTE      IPL2
      0000008EH   SFRSYM    DATA     BYTE      SOFT_RST
      000000C4H   SFRSYM    DATA     BYTE      ADCCKC
      000000B2H   SFRSYM    DATA     BYTE      DP_MODE
      000000D0H.7 SFRSYM    DATA     BIT       CY
      000000D5H   SFRSYM    DATA     BYTE      INT_POBO_STAT
      000000E3H   SFRSYM    DATA     BYTE      IICADD
      000000DCH   SFRSYM    DATA     BYTE      UART0_BDL
      000000C1H   SFRSYM    DATA     BYTE      ADC_SPT
      000000D6H   SFRSYM    DATA     BYTE      UART1_BDL
LX51 LINKER/LOCATER V4.66.100.0                                                       04/23/2024  19:14:21  PAGE 32


      00000081H   SFRSYM    DATA     BYTE      SP
      000000D0H.2 SFRSYM    DATA     BIT       OV
      000000C7H   SFRSYM    DATA     BYTE      EXINT_STAT
      00000094H   SFRSYM    DATA     BYTE      TIMER2_SET_H
      000000E2H   SFRSYM    DATA     BYTE      UART0_BUF
      00000085H   SFRSYM    DATA     BYTE      TIMER3_SET_H
      000000DBH   SFRSYM    DATA     BYTE      UART1_BUF
      000000CAH   SFRSYM    DATA     BYTE      PULL_I_SEL
      000000F1H   SFRSYM    DATA     BYTE      IRCON1
      000000E1H   SFRSYM    DATA     BYTE      IRCON2
      00000095H   SFRSYM    DATA     BYTE      TIMER2_SET_L
      00000086H   SFRSYM    DATA     BYTE      TIMER3_SET_L
      00000087H   SFRSYM    DATA     BYTE      PCON
      000000CEH   SFRSYM    DATA     BYTE      SPROG_ADDR_H
      000000EDH   SFRSYM    DATA     BYTE      SCI_C1
      000000E4H   SFRSYM    DATA     BYTE      IICBUF
      000000BAH   SFRSYM    DATA     BYTE      SCI_C2
      00000089H   SFRSYM    DATA     BYTE      TMOD
      00000088H   SFRSYM    DATA     BYTE      TCON
      000000CFH   SFRSYM    DATA     BYTE      SPROG_ADDR_L
      000000BBH   SFRSYM    DATA     BYTE      SCI_C3
      000000E8H.0 SFRSYM    DATA     BIT       IIC_RECOV
      000000E5H   SFRSYM    DATA     BYTE      IICCON
      000000E8H.4 SFRSYM    DATA     BIT       IIC_AD
      000000FDH   SFRSYM    DATA     BYTE      PCD_CFG2
      000000FFH   SFRSYM    DATA     BYTE      PCD_CFG3
      000000E8H.3 SFRSYM    DATA     BIT       IIC_BF
      00000088H.1 SFRSYM    DATA     BIT       IE0
      00000088H.3 SFRSYM    DATA     BIT       IE1
      000000F8H.0 SFRSYM    DATA     BIT       PA0
      000000F0H   SFRSYM    DATA     BYTE      B
      00000080H.0 SFRSYM    DATA     BIT       PB0
      000000F8H.1 SFRSYM    DATA     BIT       PA1
      000000D2H   SFRSYM    DATA     BYTE      SPROG_CMD
      00000090H.0 SFRSYM    DATA     BIT       PC0
      00000080H.1 SFRSYM    DATA     BIT       PB1
      000000F8H.2 SFRSYM    DATA     BIT       PA2
      00000090H.1 SFRSYM    DATA     BIT       PC1
      00000080H.2 SFRSYM    DATA     BIT       PB2
      000000F8H.3 SFRSYM    DATA     BIT       PA3
      00000098H   SFRSYM    DATA     BYTE      SCI_S1
      000000B0H.0 SFRSYM    DATA     BIT       PE0
      00000090H.2 SFRSYM    DATA     BIT       PC2
      00000080H.3 SFRSYM    DATA     BIT       PB3
      000000BCH   SFRSYM    DATA     BYTE      SCI_S2
      000000E8H.7 SFRSYM    DATA     BIT       IIC_START
      000000C0H.0 SFRSYM    DATA     BIT       PF0
      000000B0H.1 SFRSYM    DATA     BIT       PE1
      00000090H.3 SFRSYM    DATA     BIT       PC3
      00000080H.4 SFRSYM    DATA     BIT       PB4
      000000C8H.0 SFRSYM    DATA     BIT       PG0
      000000C0H.1 SFRSYM    DATA     BIT       PF1
      000000B0H.2 SFRSYM    DATA     BIT       PE2
      00000090H.4 SFRSYM    DATA     BIT       PC4
      00000080H.5 SFRSYM    DATA     BIT       PB5
      000000F9H   SFRSYM    DATA     BYTE      PCD_BUF1
      000000E0H   SFRSYM    DATA     BYTE      ACC
      000000D8H.0 SFRSYM    DATA     BIT       PH0
      000000C8H.1 SFRSYM    DATA     BIT       PG1
      000000C0H.2 SFRSYM    DATA     BIT       PF2
      000000B0H.3 SFRSYM    DATA     BIT       PE3
      00000090H.5 SFRSYM    DATA     BIT       PC5
      00000080H.6 SFRSYM    DATA     BIT       PB6
      000000FAH   SFRSYM    DATA     BYTE      PCD_BUF2
      000000D8H.1 SFRSYM    DATA     BIT       PH1
LX51 LINKER/LOCATER V4.66.100.0                                                       04/23/2024  19:14:21  PAGE 33


      000000C8H.2 SFRSYM    DATA     BIT       PG2
      000000C0H.3 SFRSYM    DATA     BIT       PF3
      000000B0H.4 SFRSYM    DATA     BIT       PE4
      000000A8H.1 SFRSYM    DATA     BIT       ET0
      00000090H.6 SFRSYM    DATA     BIT       PC6
      00000080H.7 SFRSYM    DATA     BIT       PB7
      000000D8H.2 SFRSYM    DATA     BIT       PH2
      000000C8H.3 SFRSYM    DATA     BIT       PG3
      000000C0H.4 SFRSYM    DATA     BIT       PF4
      000000B0H.5 SFRSYM    DATA     BIT       PE5
      000000A8H.3 SFRSYM    DATA     BIT       ET1
      00000090H.7 SFRSYM    DATA     BIT       PC7
      00000088H.5 SFRSYM    DATA     BIT       TF0
      000000D8H.3 SFRSYM    DATA     BIT       PH3
      000000C0H.5 SFRSYM    DATA     BIT       PF5
      000000B0H.6 SFRSYM    DATA     BIT       PE6
      00000088H.7 SFRSYM    DATA     BIT       TF1
      000000C9H   SFRSYM    DATA     BYTE      CSD_START
      000000D8H.4 SFRSYM    DATA     BIT       PH4
      000000C0H.6 SFRSYM    DATA     BIT       PF6
      000000B0H.7 SFRSYM    DATA     BIT       PE7
      0000008CH   SFRSYM    DATA     BYTE      TH0
      000000D8H.5 SFRSYM    DATA     BIT       PH5
      000000C0H.7 SFRSYM    DATA     BIT       PF7
      000000A8H.0 SFRSYM    DATA     BIT       EX0
      0000008DH   SFRSYM    DATA     BYTE      TH1
      000000D8H.6 SFRSYM    DATA     BIT       PH6
      000000A8H.2 SFRSYM    DATA     BIT       EX1
      000000D8H.7 SFRSYM    DATA     BIT       PH7
      000000D0H.0 SFRSYM    DATA     BIT       P
      000000B5H   SFRSYM    DATA     BYTE      SPI_CFG1
      000000BEH   SFRSYM    DATA     BYTE      SPI_STATE
      000000B6H   SFRSYM    DATA     BYTE      SPI_CFG2
      0000008AH   SFRSYM    DATA     BYTE      TL0
      000000DFH   SFRSYM    DATA     BYTE      UART0_STATE
      0000008BH   SFRSYM    DATA     BYTE      TL1
      000000DAH   SFRSYM    DATA     BYTE      UART1_STATE
      000000B8H.1 SFRSYM    DATA     BIT       PT0
      000000D0H.3 SFRSYM    DATA     BIT       RS0
      000000B8H.3 SFRSYM    DATA     BIT       PT1
      000000B1H   SFRSYM    DATA     BYTE      DP_CON
      000000D0H.4 SFRSYM    DATA     BIT       RS1
      00000088H.4 SFRSYM    DATA     BIT       TR0
      00000088H.6 SFRSYM    DATA     BIT       TR1
      000000B8H.0 SFRSYM    DATA     BIT       PX0
      000000D3H   SFRSYM    DATA     BYTE      SPROG_TIM
      00000098H.7 SFRSYM    DATA     BIT       SCI_TE
      00000098H.6 SFRSYM    DATA     BIT       SCI_TF
      000000B8H.2 SFRSYM    DATA     BIT       PX2
      00000097H   SFRSYM    DATA     BYTE      REG_DATA
      00000098H.5 SFRSYM    DATA     BIT       SCI_RI
      000000D4H   SFRSYM    DATA     BYTE      SPROG_RDATA
      00000096H   SFRSYM    DATA     BYTE      REG_ADDR
      000000F8H   SFRSYM    DATA     BYTE      DATAA
      00000083H   SFRSYM    DATA     BYTE      DPH
      00000080H   SFRSYM    DATA     BYTE      DATAB
      000000CBH   SFRSYM    DATA     BYTE      SNS_SCAN_CFG1
      00000090H   SFRSYM    DATA     BYTE      DATAC
      000000E8H.5 SFRSYM    DATA     BIT       IIC_RW
      000000CCH   SFRSYM    DATA     BYTE      SNS_SCAN_CFG2
      000000C5H   SFRSYM    DATA     BYTE      ADC_RDATAH
      000000DDH   SFRSYM    DATA     BYTE      UART0_CON1
      000000CDH   SFRSYM    DATA     BYTE      SNS_SCAN_CFG3
      000000B0H   SFRSYM    DATA     BYTE      DATAE
      00000082H   SFRSYM    DATA     BYTE      DPL
LX51 LINKER/LOCATER V4.66.100.0                                                       04/23/2024  19:14:21  PAGE 34


      00000098H.3 SFRSYM    DATA     BIT       SCI_RO
      000000DEH   SFRSYM    DATA     BYTE      UART0_CON2
      000000D7H   SFRSYM    DATA     BYTE      UART1_CON1
      000000C0H   SFRSYM    DATA     BYTE      DATAF
      000000D9H   SFRSYM    DATA     BYTE      UART1_CON2
      000000C8H   SFRSYM    DATA     BYTE      DATAG
      000000D8H   SFRSYM    DATA     BYTE      DATAH
      000000C6H   SFRSYM    DATA     BYTE      ADC_RDATAL
      00000092H   SFRSYM    DATA     BYTE      WDT_EN
      00000093H   SFRSYM    DATA     BYTE      TIMER2_CFG
      00000084H   SFRSYM    DATA     BYTE      TIMER3_CFG
      000000B4H   SFRSYM    DATA     BYTE      LED2_WIDTH
      000000E8H.1 SFRSYM    DATA     BIT       IIC_WCOL
      000000ADH   SFRSYM    DATA     BYTE      SYS_CLK_CFG
      000000C2H   SFRSYM    DATA     BYTE      SCI_INT_CLR
      000000D0H.5 SFRSYM    DATA     BIT       F0
      0000009CH   SFRSYM    DATA     BYTE      PWM0_H_H
      000000D0H.1 SFRSYM    DATA     BIT       F1
      000000A1H   SFRSYM    DATA     BYTE      PWM1_H_H
      000000A5H   SFRSYM    DATA     BYTE      PWM2_H_H
      000000AAH   SFRSYM    DATA     BYTE      PWM3_H_H
      0000009BH   SFRSYM    DATA     BYTE      PWM0_H_L
      0000009AH   SFRSYM    DATA     BYTE      PWM0_L_H
      000000D0H   SFRSYM    DATA     BYTE      PSW
      0000009FH   SFRSYM    DATA     BYTE      PWM1_H_L
      0000009EH   SFRSYM    DATA     BYTE      PWM1_L_H
      000000A4H   SFRSYM    DATA     BYTE      PWM2_H_L
      000000A3H   SFRSYM    DATA     BYTE      PWM2_L_H
      000000A9H   SFRSYM    DATA     BYTE      PWM3_H_L
      000000A7H   SFRSYM    DATA     BYTE      PWM3_L_H
      000000E8H.6 SFRSYM    DATA     BIT       IIC_STOP
      00000099H   SFRSYM    DATA     BYTE      PWM0_L_L

      010051DCH   BLOCK     CODE     ---       LVL=0
      010051DCH   LINE      CODE     ---       #49
      010051DCH   LINE      CODE     ---       #50
      010051DCH   LINE      CODE     ---       #51
      010051EAH   LINE      CODE     ---       #53
      010051FFH   LINE      CODE     ---       #54
      010051FFH   LINE      CODE     ---       #55
      01005206H   LINE      CODE     ---       #56
      01005209H   LINE      CODE     ---       #57
      01005209H   LINE      CODE     ---       #58
      ---         BLOCKEND  ---      ---       LVL=0

      01004BFAH   BLOCK     CODE     ---       LVL=0
      020001BEH   SYMBOL    XDATA    WORD      Timer0Us
      01004BFAH   LINE      CODE     ---       #104
      01004C02H   LINE      CODE     ---       #105
      01004C02H   LINE      CODE     ---       #106
      01004C04H   LINE      CODE     ---       #107
      01004C07H   LINE      CODE     ---       #108
      01004C09H   LINE      CODE     ---       #109
      01004C0CH   LINE      CODE     ---       #110
      01004C0FH   LINE      CODE     ---       #111
      01004C12H   LINE      CODE     ---       #112
      01004C18H   LINE      CODE     ---       #114
      01004C41H   LINE      CODE     ---       #115
      01004C57H   LINE      CODE     ---       #116
      01004C5DH   LINE      CODE     ---       #117
      01004C63H   LINE      CODE     ---       #124
      01004C83H   LINE      CODE     ---       #149
      01004C86H   LINE      CODE     ---       #150
      01004C89H   LINE      CODE     ---       #151
      01004C8BH   LINE      CODE     ---       #153
LX51 LINKER/LOCATER V4.66.100.0                                                       04/23/2024  19:14:21  PAGE 35


      ---         BLOCKEND  ---      ---       LVL=0

      0100486BH   BLOCK     CODE     ---       LVL=0
      01004888H   BLOCK     CODE     NEAR LAB  LVL=1
      020001CEH   SYMBOL    XDATA    BYTE      i
      020001D9H   SYMBOL    XDATA    BYTE      addr_bak
      ---         BLOCKEND  ---      ---       LVL=1
      0100486BH   LINE      CODE     ---       #161
      01004888H   LINE      CODE     ---       #163
      01004888H   LINE      CODE     ---       #167
      0100488EH   LINE      CODE     ---       #169
      01004896H   LINE      CODE     ---       #170
      0100489EH   LINE      CODE     ---       #172
      010048A1H   LINE      CODE     ---       #178
      010048A7H   LINE      CODE     ---       #196
      010048AAH   LINE      CODE     ---       #197
      010048DBH   LINE      CODE     ---       #198
      010048DBH   LINE      CODE     ---       #199
      010048E9H   LINE      CODE     ---       #200
      010048EBH   LINE      CODE     ---       #202
      010048EBH   LINE      CODE     ---       #203
      010048F2H   LINE      CODE     ---       #204
      010048F2H   LINE      CODE     ---       #263
      010048F5H   LINE      CODE     ---       #264
      010048F5H   LINE      CODE     ---       #265
      01004904H   LINE      CODE     ---       #266
      01004904H   LINE      CODE     ---       #267
      0100490FH   LINE      CODE     ---       #268
      0100491EH   LINE      CODE     ---       #269
      0100491EH   LINE      CODE     ---       #270
      01004925H   LINE      CODE     ---       #271
      01004927H   LINE      CODE     ---       #272
      01004929H   LINE      CODE     ---       #273
      01004929H   LINE      CODE     ---       #274
      01004929H   LINE      CODE     ---       #275
      01004929H   LINE      CODE     ---       #276
      0100492CH   LINE      CODE     ---       #277
      0100492CH   LINE      CODE     ---       #278
      0100493AH   LINE      CODE     ---       #279
      01004949H   LINE      CODE     ---       #280
      01004949H   LINE      CODE     ---       #281
      01004950H   LINE      CODE     ---       #282
      01004952H   LINE      CODE     ---       #283
      01004952H   LINE      CODE     ---       #284
      01004952H   LINE      CODE     ---       #287
      01004958H   LINE      CODE     ---       #288
      ---         BLOCKEND  ---      ---       LVL=0

      01004E06H   BLOCK     CODE     ---       LVL=0
      020001BEH   SYMBOL    XDATA    WORD      Timer1Us
      01004E06H   LINE      CODE     ---       #300
      01004E0EH   LINE      CODE     ---       #301
      01004E0EH   LINE      CODE     ---       #302
      01004E10H   LINE      CODE     ---       #303
      01004E13H   LINE      CODE     ---       #304
      01004E16H   LINE      CODE     ---       #305
      01004E19H   LINE      CODE     ---       #306
      01004E1FH   LINE      CODE     ---       #308
      01004E48H   LINE      CODE     ---       #309
      01004E5EH   LINE      CODE     ---       #311
      01004E64H   LINE      CODE     ---       #312
      01004E6AH   LINE      CODE     ---       #314
      01004E6DH   LINE      CODE     ---       #315
      01004E70H   LINE      CODE     ---       #316
      01004E72H   LINE      CODE     ---       #317
LX51 LINKER/LOCATER V4.66.100.0                                                       04/23/2024  19:14:21  PAGE 36


      ---         BLOCKEND  ---      ---       LVL=0

      01004ECCH   BLOCK     CODE     ---       LVL=0
      01004EE9H   BLOCK     CODE     NEAR LAB  LVL=1
      020001DAH   SYMBOL    XDATA    BYTE      addr_bak
      ---         BLOCKEND  ---      ---       LVL=1
      01004ECCH   LINE      CODE     ---       #325
      01004EE9H   LINE      CODE     ---       #327
      01004EE9H   LINE      CODE     ---       #328
      01004EEFH   LINE      CODE     ---       #329
      01004EF2H   LINE      CODE     ---       #330
      01004EF8H   LINE      CODE     ---       #331
      01004EFEH   LINE      CODE     ---       #337
      01004F01H   LINE      CODE     ---       #341
      01004F07H   LINE      CODE     ---       #342
      ---         BLOCKEND  ---      ---       LVL=0

      010052DEH   BLOCK     CODE     ---       LVL=0
      010052E4H   BLOCK     CODE     NEAR LAB  LVL=1
      020001DBH   SYMBOL    XDATA    BYTE      addr_bak
      ---         BLOCKEND  ---      ---       LVL=1
      010052DEH   LINE      CODE     ---       #398
      010052E4H   LINE      CODE     ---       #400
      010052E4H   LINE      CODE     ---       #401
      010052EAH   LINE      CODE     ---       #402
      010052F0H   LINE      CODE     ---       #406
      010052F3H   LINE      CODE     ---       #407
      ---         BLOCKEND  ---      ---       LVL=0

      ---         MODULE    ---      ---       BF7615BMXX_XXXX_API_LVDT
      020001FEH   PUBLIC    XDATA    WORD      Low_Volotage_Flag_Confirm_count
      00000020H.7 PUBLIC    BIT      BIT       Low_Volotage_Flag_Confirm
      00000020H.6 PUBLIC    BIT      BIT       Low_Volotage_Flag
      020001FCH   PUBLIC    XDATA    WORD      Low_Volotage_Flag_Count
      00000020H.5 PUBLIC    BIT      BIT       Low_Volotage_Flag_First
      01005136H   PUBLIC    CODE     ---       LVDT_ISR
      0100527DH   PUBLIC    CODE     ---       LVDT_Init
      000000BFH   SFRSYM    DATA     BYTE      SPI_SPID
      0000009DH   SFRSYM    DATA     BYTE      PWM1_L_L
      000000AEH   SFRSYM    DATA     BYTE      INT_PE_STAT
      000000A2H   SFRSYM    DATA     BYTE      PWM2_L_L
      000000C3H   SFRSYM    DATA     BYTE      ADC_SCAN_CFG
      000000A6H   SFRSYM    DATA     BYTE      PWM3_L_L
      000000A0H   SFRSYM    DATA     BYTE      P2_XH
      000000D0H.6 SFRSYM    DATA     BIT       AC
      000000BDH   SFRSYM    DATA     BYTE      SCI_D
      000000EAH   SFRSYM    DATA     BYTE      TRISA
      00000098H.1 SFRSYM    DATA     BIT       SCI_F
      000000E8H.2 SFRSYM    DATA     BIT       IIC_ACK
      000000A8H.7 SFRSYM    DATA     BIT       EA
      000000EBH   SFRSYM    DATA     BYTE      TRISB
      000000ECH   SFRSYM    DATA     BYTE      TRISC
      000000B9H   SFRSYM    DATA     BYTE      DP_CON1
      00000091H   SFRSYM    DATA     BYTE      WDT_CTRL
      00000098H.4 SFRSYM    DATA     BIT       SCI_I
      000000FBH   SFRSYM    DATA     BYTE      PCD_CFG
      000000EEH   SFRSYM    DATA     BYTE      TRISE
      000000D1H   SFRSYM    DATA     BYTE      SPROG_DATA
      000000B3H   SFRSYM    DATA     BYTE      SCAN_WIDTH
      000000EFH   SFRSYM    DATA     BYTE      TRISF
      000000F2H   SFRSYM    DATA     BYTE      TRISG
      000000ACH   SFRSYM    DATA     BYTE      CSD_RAWDATAH
      000000F7H   SFRSYM    DATA     BYTE      TRISH
      000000FCH   SFRSYM    DATA     BYTE      PCD_CMD
      000000A8H   SFRSYM    DATA     BYTE      IEN0
LX51 LINKER/LOCATER V4.66.100.0                                                       04/23/2024  19:14:21  PAGE 37


      00000098H.2 SFRSYM    DATA     BIT       SCI_N
      000000E6H   SFRSYM    DATA     BYTE      IEN1
      000000E7H   SFRSYM    DATA     BYTE      IEN2
      000000ABH   SFRSYM    DATA     BYTE      CSD_RAWDATAL
      00000098H.0 SFRSYM    DATA     BIT       SCI_P
      000000FEH   SFRSYM    DATA     BYTE      PCD_BIT_ER
      000000E9H   SFRSYM    DATA     BYTE      IICBUFFER
      000000E8H   SFRSYM    DATA     BYTE      IICSTAT
      000000B8H   SFRSYM    DATA     BYTE      IPL0
      000000F6H   SFRSYM    DATA     BYTE      IPL1
      000000AFH   SFRSYM    DATA     BYTE      SCAN_START
      000000F4H   SFRSYM    DATA     BYTE      IPL2
      0000008EH   SFRSYM    DATA     BYTE      SOFT_RST
      000000C4H   SFRSYM    DATA     BYTE      ADCCKC
      000000B2H   SFRSYM    DATA     BYTE      DP_MODE
      000000D0H.7 SFRSYM    DATA     BIT       CY
      000000D5H   SFRSYM    DATA     BYTE      INT_POBO_STAT
      000000E3H   SFRSYM    DATA     BYTE      IICADD
      000000DCH   SFRSYM    DATA     BYTE      UART0_BDL
      000000C1H   SFRSYM    DATA     BYTE      ADC_SPT
      000000D6H   SFRSYM    DATA     BYTE      UART1_BDL
      00000081H   SFRSYM    DATA     BYTE      SP
      000000D0H.2 SFRSYM    DATA     BIT       OV
      000000C7H   SFRSYM    DATA     BYTE      EXINT_STAT
      00000094H   SFRSYM    DATA     BYTE      TIMER2_SET_H
      000000E2H   SFRSYM    DATA     BYTE      UART0_BUF
      00000085H   SFRSYM    DATA     BYTE      TIMER3_SET_H
      000000DBH   SFRSYM    DATA     BYTE      UART1_BUF
      000000CAH   SFRSYM    DATA     BYTE      PULL_I_SEL
      000000F1H   SFRSYM    DATA     BYTE      IRCON1
      000000E1H   SFRSYM    DATA     BYTE      IRCON2
      00000095H   SFRSYM    DATA     BYTE      TIMER2_SET_L
      00000086H   SFRSYM    DATA     BYTE      TIMER3_SET_L
      00000087H   SFRSYM    DATA     BYTE      PCON
      000000CEH   SFRSYM    DATA     BYTE      SPROG_ADDR_H
      000000EDH   SFRSYM    DATA     BYTE      SCI_C1
      000000E4H   SFRSYM    DATA     BYTE      IICBUF
      000000BAH   SFRSYM    DATA     BYTE      SCI_C2
      00000089H   SFRSYM    DATA     BYTE      TMOD
      00000088H   SFRSYM    DATA     BYTE      TCON
      000000CFH   SFRSYM    DATA     BYTE      SPROG_ADDR_L
      000000BBH   SFRSYM    DATA     BYTE      SCI_C3
      000000E8H.0 SFRSYM    DATA     BIT       IIC_RECOV
      000000E5H   SFRSYM    DATA     BYTE      IICCON
      000000E8H.4 SFRSYM    DATA     BIT       IIC_AD
      000000FDH   SFRSYM    DATA     BYTE      PCD_CFG2
      000000FFH   SFRSYM    DATA     BYTE      PCD_CFG3
      000000E8H.3 SFRSYM    DATA     BIT       IIC_BF
      00000088H.1 SFRSYM    DATA     BIT       IE0
      00000088H.3 SFRSYM    DATA     BIT       IE1
      000000F8H.0 SFRSYM    DATA     BIT       PA0
      000000F0H   SFRSYM    DATA     BYTE      B
      00000080H.0 SFRSYM    DATA     BIT       PB0
      000000F8H.1 SFRSYM    DATA     BIT       PA1
      000000D2H   SFRSYM    DATA     BYTE      SPROG_CMD
      00000090H.0 SFRSYM    DATA     BIT       PC0
      00000080H.1 SFRSYM    DATA     BIT       PB1
      000000F8H.2 SFRSYM    DATA     BIT       PA2
      00000090H.1 SFRSYM    DATA     BIT       PC1
      00000080H.2 SFRSYM    DATA     BIT       PB2
      000000F8H.3 SFRSYM    DATA     BIT       PA3
      00000098H   SFRSYM    DATA     BYTE      SCI_S1
      000000B0H.0 SFRSYM    DATA     BIT       PE0
      00000090H.2 SFRSYM    DATA     BIT       PC2
      00000080H.3 SFRSYM    DATA     BIT       PB3
LX51 LINKER/LOCATER V4.66.100.0                                                       04/23/2024  19:14:21  PAGE 38


      000000BCH   SFRSYM    DATA     BYTE      SCI_S2
      000000E8H.7 SFRSYM    DATA     BIT       IIC_START
      000000C0H.0 SFRSYM    DATA     BIT       PF0
      000000B0H.1 SFRSYM    DATA     BIT       PE1
      00000090H.3 SFRSYM    DATA     BIT       PC3
      00000080H.4 SFRSYM    DATA     BIT       PB4
      000000C8H.0 SFRSYM    DATA     BIT       PG0
      000000C0H.1 SFRSYM    DATA     BIT       PF1
      000000B0H.2 SFRSYM    DATA     BIT       PE2
      00000090H.4 SFRSYM    DATA     BIT       PC4
      00000080H.5 SFRSYM    DATA     BIT       PB5
      000000F9H   SFRSYM    DATA     BYTE      PCD_BUF1
      000000E0H   SFRSYM    DATA     BYTE      ACC
      000000D8H.0 SFRSYM    DATA     BIT       PH0
      000000C8H.1 SFRSYM    DATA     BIT       PG1
      000000C0H.2 SFRSYM    DATA     BIT       PF2
      000000B0H.3 SFRSYM    DATA     BIT       PE3
      00000090H.5 SFRSYM    DATA     BIT       PC5
      00000080H.6 SFRSYM    DATA     BIT       PB6
      000000FAH   SFRSYM    DATA     BYTE      PCD_BUF2
      000000D8H.1 SFRSYM    DATA     BIT       PH1
      000000C8H.2 SFRSYM    DATA     BIT       PG2
      000000C0H.3 SFRSYM    DATA     BIT       PF3
      000000B0H.4 SFRSYM    DATA     BIT       PE4
      000000A8H.1 SFRSYM    DATA     BIT       ET0
      00000090H.6 SFRSYM    DATA     BIT       PC6
      00000080H.7 SFRSYM    DATA     BIT       PB7
      000000D8H.2 SFRSYM    DATA     BIT       PH2
      000000C8H.3 SFRSYM    DATA     BIT       PG3
      000000C0H.4 SFRSYM    DATA     BIT       PF4
      000000B0H.5 SFRSYM    DATA     BIT       PE5
      000000A8H.3 SFRSYM    DATA     BIT       ET1
      00000090H.7 SFRSYM    DATA     BIT       PC7
      00000088H.5 SFRSYM    DATA     BIT       TF0
      000000D8H.3 SFRSYM    DATA     BIT       PH3
      000000C0H.5 SFRSYM    DATA     BIT       PF5
      000000B0H.6 SFRSYM    DATA     BIT       PE6
      00000088H.7 SFRSYM    DATA     BIT       TF1
      000000C9H   SFRSYM    DATA     BYTE      CSD_START
      000000D8H.4 SFRSYM    DATA     BIT       PH4
      000000C0H.6 SFRSYM    DATA     BIT       PF6
      000000B0H.7 SFRSYM    DATA     BIT       PE7
      0000008CH   SFRSYM    DATA     BYTE      TH0
      000000D8H.5 SFRSYM    DATA     BIT       PH5
      000000C0H.7 SFRSYM    DATA     BIT       PF7
      000000A8H.0 SFRSYM    DATA     BIT       EX0
      0000008DH   SFRSYM    DATA     BYTE      TH1
      000000D8H.6 SFRSYM    DATA     BIT       PH6
      000000A8H.2 SFRSYM    DATA     BIT       EX1
      000000D8H.7 SFRSYM    DATA     BIT       PH7
      000000D0H.0 SFRSYM    DATA     BIT       P
      000000B5H   SFRSYM    DATA     BYTE      SPI_CFG1
      000000BEH   SFRSYM    DATA     BYTE      SPI_STATE
      000000B6H   SFRSYM    DATA     BYTE      SPI_CFG2
      0000008AH   SFRSYM    DATA     BYTE      TL0
      000000DFH   SFRSYM    DATA     BYTE      UART0_STATE
      0000008BH   SFRSYM    DATA     BYTE      TL1
      000000DAH   SFRSYM    DATA     BYTE      UART1_STATE
      000000B8H.1 SFRSYM    DATA     BIT       PT0
      000000D0H.3 SFRSYM    DATA     BIT       RS0
      000000B8H.3 SFRSYM    DATA     BIT       PT1
      000000B1H   SFRSYM    DATA     BYTE      DP_CON
      000000D0H.4 SFRSYM    DATA     BIT       RS1
      00000088H.4 SFRSYM    DATA     BIT       TR0
      00000088H.6 SFRSYM    DATA     BIT       TR1
LX51 LINKER/LOCATER V4.66.100.0                                                       04/23/2024  19:14:21  PAGE 39


      000000B8H.0 SFRSYM    DATA     BIT       PX0
      000000D3H   SFRSYM    DATA     BYTE      SPROG_TIM
      00000098H.7 SFRSYM    DATA     BIT       SCI_TE
      00000098H.6 SFRSYM    DATA     BIT       SCI_TF
      000000B8H.2 SFRSYM    DATA     BIT       PX2
      00000097H   SFRSYM    DATA     BYTE      REG_DATA
      00000098H.5 SFRSYM    DATA     BIT       SCI_RI
      000000D4H   SFRSYM    DATA     BYTE      SPROG_RDATA
      00000096H   SFRSYM    DATA     BYTE      REG_ADDR
      000000F8H   SFRSYM    DATA     BYTE      DATAA
      00000083H   SFRSYM    DATA     BYTE      DPH
      00000080H   SFRSYM    DATA     BYTE      DATAB
      000000CBH   SFRSYM    DATA     BYTE      SNS_SCAN_CFG1
      00000090H   SFRSYM    DATA     BYTE      DATAC
      000000E8H.5 SFRSYM    DATA     BIT       IIC_RW
      000000CCH   SFRSYM    DATA     BYTE      SNS_SCAN_CFG2
      000000C5H   SFRSYM    DATA     BYTE      ADC_RDATAH
      000000DDH   SFRSYM    DATA     BYTE      UART0_CON1
      000000CDH   SFRSYM    DATA     BYTE      SNS_SCAN_CFG3
      000000B0H   SFRSYM    DATA     BYTE      DATAE
      00000082H   SFRSYM    DATA     BYTE      DPL
      00000098H.3 SFRSYM    DATA     BIT       SCI_RO
      000000DEH   SFRSYM    DATA     BYTE      UART0_CON2
      000000D7H   SFRSYM    DATA     BYTE      UART1_CON1
      000000C0H   SFRSYM    DATA     BYTE      DATAF
      000000D9H   SFRSYM    DATA     BYTE      UART1_CON2
      000000C8H   SFRSYM    DATA     BYTE      DATAG
      000000D8H   SFRSYM    DATA     BYTE      DATAH
      000000C6H   SFRSYM    DATA     BYTE      ADC_RDATAL
      00000092H   SFRSYM    DATA     BYTE      WDT_EN
      00000093H   SFRSYM    DATA     BYTE      TIMER2_CFG
      00000084H   SFRSYM    DATA     BYTE      TIMER3_CFG
      000000B4H   SFRSYM    DATA     BYTE      LED2_WIDTH
      000000E8H.1 SFRSYM    DATA     BIT       IIC_WCOL
      000000ADH   SFRSYM    DATA     BYTE      SYS_CLK_CFG
      000000C2H   SFRSYM    DATA     BYTE      SCI_INT_CLR
      000000D0H.5 SFRSYM    DATA     BIT       F0
      0000009CH   SFRSYM    DATA     BYTE      PWM0_H_H
      000000D0H.1 SFRSYM    DATA     BIT       F1
      000000A1H   SFRSYM    DATA     BYTE      PWM1_H_H
      000000A5H   SFRSYM    DATA     BYTE      PWM2_H_H
      000000AAH   SFRSYM    DATA     BYTE      PWM3_H_H
      0000009BH   SFRSYM    DATA     BYTE      PWM0_H_L
      0000009AH   SFRSYM    DATA     BYTE      PWM0_L_H
      000000D0H   SFRSYM    DATA     BYTE      PSW
      0000009FH   SFRSYM    DATA     BYTE      PWM1_H_L
      0000009EH   SFRSYM    DATA     BYTE      PWM1_L_H
      000000A4H   SFRSYM    DATA     BYTE      PWM2_H_L
      000000A3H   SFRSYM    DATA     BYTE      PWM2_L_H
      000000A9H   SFRSYM    DATA     BYTE      PWM3_H_L
      000000A7H   SFRSYM    DATA     BYTE      PWM3_L_H
      000000E8H.6 SFRSYM    DATA     BIT       IIC_STOP
      00000099H   SFRSYM    DATA     BYTE      PWM0_L_L

      0100527DH   BLOCK     CODE     ---       LVL=0
      0100527DH   LINE      CODE     ---       #20
      0100527DH   LINE      CODE     ---       #21
      0100527DH   LINE      CODE     ---       #22
      0100527FH   LINE      CODE     ---       #23
      01005282H   LINE      CODE     ---       #24
      01005285H   LINE      CODE     ---       #25
      01005288H   LINE      CODE     ---       #26
      0100528BH   LINE      CODE     ---       #27
      01005291H   LINE      CODE     ---       #28
      0100529AH   LINE      CODE     ---       #29
LX51 LINKER/LOCATER V4.66.100.0                                                       04/23/2024  19:14:21  PAGE 40


      0100529DH   LINE      CODE     ---       #30
      0100529FH   LINE      CODE     ---       #31
      ---         BLOCKEND  ---      ---       LVL=0

      01005136H   BLOCK     CODE     ---       LVL=0
      0100513CH   BLOCK     CODE     NEAR LAB  LVL=1
      020001FBH   SYMBOL    XDATA    BYTE      addr_bak
      ---         BLOCKEND  ---      ---       LVL=1
      01005136H   LINE      CODE     ---       #40
      0100513CH   LINE      CODE     ---       #42
      0100513CH   LINE      CODE     ---       #43
      01005142H   LINE      CODE     ---       #44
      01005145H   LINE      CODE     ---       #46
      0100514AH   LINE      CODE     ---       #47
      0100514AH   LINE      CODE     ---       #48
      0100514CH   LINE      CODE     ---       #49
      0100514FH   LINE      CODE     ---       #50
      0100514FH   LINE      CODE     ---       #51
      01005154H   LINE      CODE     ---       #52
      01005154H   LINE      CODE     ---       #53
      01005157H   LINE      CODE     ---       #54
      01005159H   LINE      CODE     ---       #55
      0100515BH   LINE      CODE     ---       #56
      01005162H   LINE      CODE     ---       #57
      01005162H   LINE      CODE     ---       #58
      01005168H   LINE      CODE     ---       #59
      ---         BLOCKEND  ---      ---       LVL=0

      ---         MODULE    ---      ---       BF7615BMXX_XXXX_API_UART
      01005068H   PUBLIC    CODE     ---       UART1_ISR
      01004F22H   PUBLIC    CODE     ---       UART1_Init
      01004FCDH   PUBLIC    CODE     ---       UART0_ISR
      01004E73H   PUBLIC    CODE     ---       UART0_Init
      000000BFH   SFRSYM    DATA     BYTE      SPI_SPID
      0000009DH   SFRSYM    DATA     BYTE      PWM1_L_L
      000000AEH   SFRSYM    DATA     BYTE      INT_PE_STAT
      000000A2H   SFRSYM    DATA     BYTE      PWM2_L_L
      000000C3H   SFRSYM    DATA     BYTE      ADC_SCAN_CFG
      000000A6H   SFRSYM    DATA     BYTE      PWM3_L_L
      000000A0H   SFRSYM    DATA     BYTE      P2_XH
      000000D0H.6 SFRSYM    DATA     BIT       AC
      000000BDH   SFRSYM    DATA     BYTE      SCI_D
      000000EAH   SFRSYM    DATA     BYTE      TRISA
      00000098H.1 SFRSYM    DATA     BIT       SCI_F
      000000E8H.2 SFRSYM    DATA     BIT       IIC_ACK
      000000A8H.7 SFRSYM    DATA     BIT       EA
      000000EBH   SFRSYM    DATA     BYTE      TRISB
      000000ECH   SFRSYM    DATA     BYTE      TRISC
      000000B9H   SFRSYM    DATA     BYTE      DP_CON1
      00000091H   SFRSYM    DATA     BYTE      WDT_CTRL
      00000098H.4 SFRSYM    DATA     BIT       SCI_I
      000000FBH   SFRSYM    DATA     BYTE      PCD_CFG
      000000EEH   SFRSYM    DATA     BYTE      TRISE
      000000D1H   SFRSYM    DATA     BYTE      SPROG_DATA
      000000B3H   SFRSYM    DATA     BYTE      SCAN_WIDTH
      000000EFH   SFRSYM    DATA     BYTE      TRISF
      000000F2H   SFRSYM    DATA     BYTE      TRISG
      000000ACH   SFRSYM    DATA     BYTE      CSD_RAWDATAH
      000000F7H   SFRSYM    DATA     BYTE      TRISH
      000000FCH   SFRSYM    DATA     BYTE      PCD_CMD
      000000A8H   SFRSYM    DATA     BYTE      IEN0
      00000098H.2 SFRSYM    DATA     BIT       SCI_N
      000000E6H   SFRSYM    DATA     BYTE      IEN1
      000000E7H   SFRSYM    DATA     BYTE      IEN2
      000000ABH   SFRSYM    DATA     BYTE      CSD_RAWDATAL
LX51 LINKER/LOCATER V4.66.100.0                                                       04/23/2024  19:14:21  PAGE 41


      00000098H.0 SFRSYM    DATA     BIT       SCI_P
      000000FEH   SFRSYM    DATA     BYTE      PCD_BIT_ER
      000000E9H   SFRSYM    DATA     BYTE      IICBUFFER
      000000E8H   SFRSYM    DATA     BYTE      IICSTAT
      000000B8H   SFRSYM    DATA     BYTE      IPL0
      000000F6H   SFRSYM    DATA     BYTE      IPL1
      000000AFH   SFRSYM    DATA     BYTE      SCAN_START
      000000F4H   SFRSYM    DATA     BYTE      IPL2
      0000008EH   SFRSYM    DATA     BYTE      SOFT_RST
      000000C4H   SFRSYM    DATA     BYTE      ADCCKC
      000000B2H   SFRSYM    DATA     BYTE      DP_MODE
      000000D0H.7 SFRSYM    DATA     BIT       CY
      000000D5H   SFRSYM    DATA     BYTE      INT_POBO_STAT
      000000E3H   SFRSYM    DATA     BYTE      IICADD
      000000DCH   SFRSYM    DATA     BYTE      UART0_BDL
      000000C1H   SFRSYM    DATA     BYTE      ADC_SPT
      000000D6H   SFRSYM    DATA     BYTE      UART1_BDL
      00000081H   SFRSYM    DATA     BYTE      SP
      000000D0H.2 SFRSYM    DATA     BIT       OV
      000000C7H   SFRSYM    DATA     BYTE      EXINT_STAT
      00000094H   SFRSYM    DATA     BYTE      TIMER2_SET_H
      000000E2H   SFRSYM    DATA     BYTE      UART0_BUF
      00000085H   SFRSYM    DATA     BYTE      TIMER3_SET_H
      000000DBH   SFRSYM    DATA     BYTE      UART1_BUF
      000000CAH   SFRSYM    DATA     BYTE      PULL_I_SEL
      000000F1H   SFRSYM    DATA     BYTE      IRCON1
      000000E1H   SFRSYM    DATA     BYTE      IRCON2
      00000095H   SFRSYM    DATA     BYTE      TIMER2_SET_L
      00000086H   SFRSYM    DATA     BYTE      TIMER3_SET_L
      00000087H   SFRSYM    DATA     BYTE      PCON
      000000CEH   SFRSYM    DATA     BYTE      SPROG_ADDR_H
      000000EDH   SFRSYM    DATA     BYTE      SCI_C1
      000000E4H   SFRSYM    DATA     BYTE      IICBUF
      000000BAH   SFRSYM    DATA     BYTE      SCI_C2
      00000089H   SFRSYM    DATA     BYTE      TMOD
      00000088H   SFRSYM    DATA     BYTE      TCON
      000000CFH   SFRSYM    DATA     BYTE      SPROG_ADDR_L
      000000BBH   SFRSYM    DATA     BYTE      SCI_C3
      000000E8H.0 SFRSYM    DATA     BIT       IIC_RECOV
      000000E5H   SFRSYM    DATA     BYTE      IICCON
      000000E8H.4 SFRSYM    DATA     BIT       IIC_AD
      000000FDH   SFRSYM    DATA     BYTE      PCD_CFG2
      000000FFH   SFRSYM    DATA     BYTE      PCD_CFG3
      000000E8H.3 SFRSYM    DATA     BIT       IIC_BF
      00000088H.1 SFRSYM    DATA     BIT       IE0
      00000088H.3 SFRSYM    DATA     BIT       IE1
      000000F8H.0 SFRSYM    DATA     BIT       PA0
      000000F0H   SFRSYM    DATA     BYTE      B
      00000080H.0 SFRSYM    DATA     BIT       PB0
      000000F8H.1 SFRSYM    DATA     BIT       PA1
      000000D2H   SFRSYM    DATA     BYTE      SPROG_CMD
      00000090H.0 SFRSYM    DATA     BIT       PC0
      00000080H.1 SFRSYM    DATA     BIT       PB1
      000000F8H.2 SFRSYM    DATA     BIT       PA2
      00000090H.1 SFRSYM    DATA     BIT       PC1
      00000080H.2 SFRSYM    DATA     BIT       PB2
      000000F8H.3 SFRSYM    DATA     BIT       PA3
      00000098H   SFRSYM    DATA     BYTE      SCI_S1
      000000B0H.0 SFRSYM    DATA     BIT       PE0
      00000090H.2 SFRSYM    DATA     BIT       PC2
      00000080H.3 SFRSYM    DATA     BIT       PB3
      000000BCH   SFRSYM    DATA     BYTE      SCI_S2
      000000E8H.7 SFRSYM    DATA     BIT       IIC_START
      000000C0H.0 SFRSYM    DATA     BIT       PF0
      000000B0H.1 SFRSYM    DATA     BIT       PE1
LX51 LINKER/LOCATER V4.66.100.0                                                       04/23/2024  19:14:21  PAGE 42


      00000090H.3 SFRSYM    DATA     BIT       PC3
      00000080H.4 SFRSYM    DATA     BIT       PB4
      000000C8H.0 SFRSYM    DATA     BIT       PG0
      000000C0H.1 SFRSYM    DATA     BIT       PF1
      000000B0H.2 SFRSYM    DATA     BIT       PE2
      00000090H.4 SFRSYM    DATA     BIT       PC4
      00000080H.5 SFRSYM    DATA     BIT       PB5
      000000F9H   SFRSYM    DATA     BYTE      PCD_BUF1
      000000E0H   SFRSYM    DATA     BYTE      ACC
      000000D8H.0 SFRSYM    DATA     BIT       PH0
      000000C8H.1 SFRSYM    DATA     BIT       PG1
      000000C0H.2 SFRSYM    DATA     BIT       PF2
      000000B0H.3 SFRSYM    DATA     BIT       PE3
      00000090H.5 SFRSYM    DATA     BIT       PC5
      00000080H.6 SFRSYM    DATA     BIT       PB6
      000000FAH   SFRSYM    DATA     BYTE      PCD_BUF2
      000000D8H.1 SFRSYM    DATA     BIT       PH1
      000000C8H.2 SFRSYM    DATA     BIT       PG2
      000000C0H.3 SFRSYM    DATA     BIT       PF3
      000000B0H.4 SFRSYM    DATA     BIT       PE4
      000000A8H.1 SFRSYM    DATA     BIT       ET0
      00000090H.6 SFRSYM    DATA     BIT       PC6
      00000080H.7 SFRSYM    DATA     BIT       PB7
      000000D8H.2 SFRSYM    DATA     BIT       PH2
      000000C8H.3 SFRSYM    DATA     BIT       PG3
      000000C0H.4 SFRSYM    DATA     BIT       PF4
      000000B0H.5 SFRSYM    DATA     BIT       PE5
      000000A8H.3 SFRSYM    DATA     BIT       ET1
      00000090H.7 SFRSYM    DATA     BIT       PC7
      00000088H.5 SFRSYM    DATA     BIT       TF0
      000000D8H.3 SFRSYM    DATA     BIT       PH3
      000000C0H.5 SFRSYM    DATA     BIT       PF5
      000000B0H.6 SFRSYM    DATA     BIT       PE6
      00000088H.7 SFRSYM    DATA     BIT       TF1
      000000C9H   SFRSYM    DATA     BYTE      CSD_START
      000000D8H.4 SFRSYM    DATA     BIT       PH4
      000000C0H.6 SFRSYM    DATA     BIT       PF6
      000000B0H.7 SFRSYM    DATA     BIT       PE7
      0000008CH   SFRSYM    DATA     BYTE      TH0
      000000D8H.5 SFRSYM    DATA     BIT       PH5
      000000C0H.7 SFRSYM    DATA     BIT       PF7
      000000A8H.0 SFRSYM    DATA     BIT       EX0
      0000008DH   SFRSYM    DATA     BYTE      TH1
      000000D8H.6 SFRSYM    DATA     BIT       PH6
      000000A8H.2 SFRSYM    DATA     BIT       EX1
      000000D8H.7 SFRSYM    DATA     BIT       PH7
      000000D0H.0 SFRSYM    DATA     BIT       P
      000000B5H   SFRSYM    DATA     BYTE      SPI_CFG1
      000000BEH   SFRSYM    DATA     BYTE      SPI_STATE
      000000B6H   SFRSYM    DATA     BYTE      SPI_CFG2
      0000008AH   SFRSYM    DATA     BYTE      TL0
      000000DFH   SFRSYM    DATA     BYTE      UART0_STATE
      0000008BH   SFRSYM    DATA     BYTE      TL1
      000000DAH   SFRSYM    DATA     BYTE      UART1_STATE
      000000B8H.1 SFRSYM    DATA     BIT       PT0
      000000D0H.3 SFRSYM    DATA     BIT       RS0
      000000B8H.3 SFRSYM    DATA     BIT       PT1
      000000B1H   SFRSYM    DATA     BYTE      DP_CON
      000000D0H.4 SFRSYM    DATA     BIT       RS1
      00000088H.4 SFRSYM    DATA     BIT       TR0
      00000088H.6 SFRSYM    DATA     BIT       TR1
      000000B8H.0 SFRSYM    DATA     BIT       PX0
      000000D3H   SFRSYM    DATA     BYTE      SPROG_TIM
      00000098H.7 SFRSYM    DATA     BIT       SCI_TE
      00000098H.6 SFRSYM    DATA     BIT       SCI_TF
LX51 LINKER/LOCATER V4.66.100.0                                                       04/23/2024  19:14:21  PAGE 43


      000000B8H.2 SFRSYM    DATA     BIT       PX2
      00000097H   SFRSYM    DATA     BYTE      REG_DATA
      00000098H.5 SFRSYM    DATA     BIT       SCI_RI
      000000D4H   SFRSYM    DATA     BYTE      SPROG_RDATA
      00000096H   SFRSYM    DATA     BYTE      REG_ADDR
      000000F8H   SFRSYM    DATA     BYTE      DATAA
      00000083H   SFRSYM    DATA     BYTE      DPH
      00000080H   SFRSYM    DATA     BYTE      DATAB
      000000CBH   SFRSYM    DATA     BYTE      SNS_SCAN_CFG1
      00000090H   SFRSYM    DATA     BYTE      DATAC
      000000E8H.5 SFRSYM    DATA     BIT       IIC_RW
      000000CCH   SFRSYM    DATA     BYTE      SNS_SCAN_CFG2
      000000C5H   SFRSYM    DATA     BYTE      ADC_RDATAH
      000000DDH   SFRSYM    DATA     BYTE      UART0_CON1
      000000CDH   SFRSYM    DATA     BYTE      SNS_SCAN_CFG3
      000000B0H   SFRSYM    DATA     BYTE      DATAE
      00000082H   SFRSYM    DATA     BYTE      DPL
      00000098H.3 SFRSYM    DATA     BIT       SCI_RO
      000000DEH   SFRSYM    DATA     BYTE      UART0_CON2
      000000D7H   SFRSYM    DATA     BYTE      UART1_CON1
      000000C0H   SFRSYM    DATA     BYTE      DATAF
      000000D9H   SFRSYM    DATA     BYTE      UART1_CON2
      000000C8H   SFRSYM    DATA     BYTE      DATAG
      000000D8H   SFRSYM    DATA     BYTE      DATAH
      000000C6H   SFRSYM    DATA     BYTE      ADC_RDATAL
      00000092H   SFRSYM    DATA     BYTE      WDT_EN
      00000093H   SFRSYM    DATA     BYTE      TIMER2_CFG
      00000084H   SFRSYM    DATA     BYTE      TIMER3_CFG
      000000B4H   SFRSYM    DATA     BYTE      LED2_WIDTH
      000000E8H.1 SFRSYM    DATA     BIT       IIC_WCOL
      000000ADH   SFRSYM    DATA     BYTE      SYS_CLK_CFG
      000000C2H   SFRSYM    DATA     BYTE      SCI_INT_CLR
      000000D0H.5 SFRSYM    DATA     BIT       F0
      0000009CH   SFRSYM    DATA     BYTE      PWM0_H_H
      000000D0H.1 SFRSYM    DATA     BIT       F1
      000000A1H   SFRSYM    DATA     BYTE      PWM1_H_H
      000000A5H   SFRSYM    DATA     BYTE      PWM2_H_H
      000000AAH   SFRSYM    DATA     BYTE      PWM3_H_H
      0000009BH   SFRSYM    DATA     BYTE      PWM0_H_L
      0000009AH   SFRSYM    DATA     BYTE      PWM0_L_H
      000000D0H   SFRSYM    DATA     BYTE      PSW
      0000009FH   SFRSYM    DATA     BYTE      PWM1_H_L
      0000009EH   SFRSYM    DATA     BYTE      PWM1_L_H
      000000A4H   SFRSYM    DATA     BYTE      PWM2_H_L
      000000A3H   SFRSYM    DATA     BYTE      PWM2_L_H
      000000A9H   SFRSYM    DATA     BYTE      PWM3_H_L
      000000A7H   SFRSYM    DATA     BYTE      PWM3_L_H
      000000E8H.6 SFRSYM    DATA     BIT       IIC_STOP
      00000099H   SFRSYM    DATA     BYTE      PWM0_L_L

      01004E73H   BLOCK     CODE     ---       LVL=0
      01004E73H   LINE      CODE     ---       #78
      01004E73H   LINE      CODE     ---       #79
      01004E73H   LINE      CODE     ---       #80
      01004E75H   LINE      CODE     ---       #81
      01004E78H   LINE      CODE     ---       #82
      01004E7BH   LINE      CODE     ---       #83
      01004E84H   LINE      CODE     ---       #93
      01004E8AH   LINE      CODE     ---       #94
      01004E90H   LINE      CODE     ---       #95
      01004E99H   LINE      CODE     ---       #96
      01004EA2H   LINE      CODE     ---       #107
      01004EA5H   LINE      CODE     ---       #108
      01004EA8H   LINE      CODE     ---       #109
      01004EABH   LINE      CODE     ---       #110
LX51 LINKER/LOCATER V4.66.100.0                                                       04/23/2024  19:14:21  PAGE 44


      01004EAEH   LINE      CODE     ---       #111
      01004EB1H   LINE      CODE     ---       #112
      01004EB4H   LINE      CODE     ---       #113
      01004EB7H   LINE      CODE     ---       #114
      01004EBAH   LINE      CODE     ---       #115
      01004EBDH   LINE      CODE     ---       #116
      01004EC0H   LINE      CODE     ---       #117
      01004EC3H   LINE      CODE     ---       #118
      01004EC6H   LINE      CODE     ---       #119
      01004EC9H   LINE      CODE     ---       #120
      01004ECBH   LINE      CODE     ---       #121
      ---         BLOCKEND  ---      ---       LVL=0

      01004FCDH   BLOCK     CODE     ---       LVL=0
      01004FD3H   BLOCK     CODE     NEAR LAB  LVL=1
      020001D5H   SYMBOL    XDATA    BYTE      temp
      02000200H   SYMBOL    XDATA    BYTE      addr_bak
      ---         BLOCKEND  ---      ---       LVL=1
      01004FCDH   LINE      CODE     ---       #143
      01004FD3H   LINE      CODE     ---       #145
      01004FD8H   LINE      CODE     ---       #147
      01004FDEH   LINE      CODE     ---       #148
      01004FE1H   LINE      CODE     ---       #149
      01004FE6H   LINE      CODE     ---       #150
      01004FE6H   LINE      CODE     ---       #151
      01004FE9H   LINE      CODE     ---       #152
      01004FEFH   LINE      CODE     ---       #154
      01004FEFH   LINE      CODE     ---       #155
      01004FF4H   LINE      CODE     ---       #156
      01004FF4H   LINE      CODE     ---       #157
      01004FF7H   LINE      CODE     ---       #158
      01004FF7H   LINE      CODE     ---       #159
      01004FFCH   LINE      CODE     ---       #160
      01004FFCH   LINE      CODE     ---       #161
      01004FFFH   LINE      CODE     ---       #162
      01004FFFH   LINE      CODE     ---       #163
      01005004H   LINE      CODE     ---       #164
      01005004H   LINE      CODE     ---       #165
      01005007H   LINE      CODE     ---       #166
      01005007H   LINE      CODE     ---       #167
      0100500CH   LINE      CODE     ---       #168
      0100500CH   LINE      CODE     ---       #169
      0100500FH   LINE      CODE     ---       #171
      0100500FH   LINE      CODE     ---       #172
      01005015H   LINE      CODE     ---       #173
      ---         BLOCKEND  ---      ---       LVL=0

      01004F22H   BLOCK     CODE     ---       LVL=0
      01004F22H   LINE      CODE     ---       #189
      01004F22H   LINE      CODE     ---       #190
      01004F22H   LINE      CODE     ---       #191
      01004F24H   LINE      CODE     ---       #192
      01004F27H   LINE      CODE     ---       #193
      01004F2AH   LINE      CODE     ---       #194
      01004F30H   LINE      CODE     ---       #205
      01004F36H   LINE      CODE     ---       #206
      01004F3CH   LINE      CODE     ---       #207
      01004F45H   LINE      CODE     ---       #208
      01004F4EH   LINE      CODE     ---       #213
      01004F51H   LINE      CODE     ---       #214
      01004F54H   LINE      CODE     ---       #215
      01004F57H   LINE      CODE     ---       #216
      01004F5AH   LINE      CODE     ---       #217
      01004F5DH   LINE      CODE     ---       #218
      01004F60H   LINE      CODE     ---       #219
LX51 LINKER/LOCATER V4.66.100.0                                                       04/23/2024  19:14:21  PAGE 45


      01004F63H   LINE      CODE     ---       #220
      01004F66H   LINE      CODE     ---       #221
      01004F69H   LINE      CODE     ---       #222
      01004F6CH   LINE      CODE     ---       #223
      01004F6FH   LINE      CODE     ---       #224
      01004F72H   LINE      CODE     ---       #225
      01004F75H   LINE      CODE     ---       #226
      01004F77H   LINE      CODE     ---       #227
      ---         BLOCKEND  ---      ---       LVL=0

      01005068H   BLOCK     CODE     ---       LVL=0
      0100506EH   BLOCK     CODE     NEAR LAB  LVL=1
      020001D6H   SYMBOL    XDATA    BYTE      temp
      02000201H   SYMBOL    XDATA    BYTE      addr_bak
      ---         BLOCKEND  ---      ---       LVL=1
      01005068H   LINE      CODE     ---       #248
      0100506EH   LINE      CODE     ---       #250
      0100506EH   LINE      CODE     ---       #252
      01005074H   LINE      CODE     ---       #253
      01005077H   LINE      CODE     ---       #254
      0100507CH   LINE      CODE     ---       #255
      0100507CH   LINE      CODE     ---       #256
      0100507FH   LINE      CODE     ---       #259
      0100507FH   LINE      CODE     ---       #260
      01005084H   LINE      CODE     ---       #261
      01005084H   LINE      CODE     ---       #262
      01005087H   LINE      CODE     ---       #263
      01005087H   LINE      CODE     ---       #264
      0100508CH   LINE      CODE     ---       #265
      0100508CH   LINE      CODE     ---       #266
      0100508FH   LINE      CODE     ---       #267
      0100508FH   LINE      CODE     ---       #268
      01005094H   LINE      CODE     ---       #269
      01005094H   LINE      CODE     ---       #270
      01005097H   LINE      CODE     ---       #271
      01005097H   LINE      CODE     ---       #273
      0100509CH   LINE      CODE     ---       #274
      0100509CH   LINE      CODE     ---       #275
      0100509FH   LINE      CODE     ---       #278
      010050A5H   LINE      CODE     ---       #279
      010050A5H   LINE      CODE     ---       #280
      010050ABH   LINE      CODE     ---       #281
      ---         BLOCKEND  ---      ---       LVL=0

      ---         MODULE    ---      ---       BF7615BMXX_XXXX_CTK
      02000135H   PUBLIC    XDATA    BYTE      sns_next
      02000133H   PUBLIC    XDATA    WORD      ctk_soft_reset_count
      0200012FH   PUBLIC    XDATA    DWORD     mode_flag_l
      0200012BH   PUBLIC    XDATA    DWORD     mode_flag_h
      02000127H   PUBLIC    XDATA    DWORD     sensor_flag_l
      00000020H.4 PUBLIC    BIT      BIT       parallel_init_flag
      02000126H   PUBLIC    XDATA    BYTE      multi_key_count
      02000122H   PUBLIC    XDATA    DWORD     sensor_flag_h
      02000121H   PUBLIC    XDATA    BYTE      parallel_mode
      0200011FH   PUBLIC    XDATA    WORD      long_key_clear_count
      00000020H.3 PUBLIC    BIT      BIT       ctk_para_done
      00000020H.2 PUBLIC    BIT      BIT       ctk_start_flag
      020000F3H   PUBLIC    XDATA    ---       raw_data
      020000F1H   PUBLIC    XDATA    WORD      pull_i_value_parallel
      020000EDH   PUBLIC    XDATA    DWORD     open_sns_l
      020000E9H   PUBLIC    XDATA    DWORD     open_sns_h
      020000E5H   PUBLIC    XDATA    DWORD     muli_key_flag_l
      020000E1H   PUBLIC    XDATA    DWORD     muli_key_flag_h
      020000B5H   PUBLIC    XDATA    ---       base_line
      00000020H.1 PUBLIC    BIT      BIT       ctk_circle_done
LX51 LINKER/LOCATER V4.66.100.0                                                       04/23/2024  19:14:21  PAGE 46


      00000020H.0 PUBLIC    BIT      BIT       adjust_done_flag
      020000B0H   PUBLIC    XDATA    DWORD     keys_flag_l
      020000AFH   PUBLIC    XDATA    BYTE      multi_key_reset_cnt
      020000AEH   PUBLIC    XDATA    BYTE      Mode
      020000AAH   PUBLIC    XDATA    DWORD     keys_flag_h
      010037E7H   PUBLIC    CODE     ---       CTK_BF7615BMXX_XXXX_Adjust_Int
      01005259H   PUBLIC    CODE     ---       _CTK_BF7615BMXX_XXXX_Set_Para
      01002789H   PUBLIC    CODE     ---       _CTK_SNS_Renovate
      010040FBH   PUBLIC    CODE     ---       _CTK_BF7615BMXX_XXXX_Get_KEYS_Touch
      010050F6H   PUBLIC    CODE     ---       Base_Line_Init
      01004973H   PUBLIC    CODE     ---       CTK_ISR
      010051A6H   PUBLIC    CODE     ---       Set_Next_SNS
      01004732H   PUBLIC    CODE     ---       CTK_Set_Para
      000000BFH   SFRSYM    DATA     BYTE      SPI_SPID
      0000009DH   SFRSYM    DATA     BYTE      PWM1_L_L
      000000AEH   SFRSYM    DATA     BYTE      INT_PE_STAT
      000000A2H   SFRSYM    DATA     BYTE      PWM2_L_L
      000000C3H   SFRSYM    DATA     BYTE      ADC_SCAN_CFG
      000000A6H   SFRSYM    DATA     BYTE      PWM3_L_L
      000000A0H   SFRSYM    DATA     BYTE      P2_XH
      000000D0H.6 SFRSYM    DATA     BIT       AC
      000000BDH   SFRSYM    DATA     BYTE      SCI_D
      000000EAH   SFRSYM    DATA     BYTE      TRISA
      00000098H.1 SFRSYM    DATA     BIT       SCI_F
      000000E8H.2 SFRSYM    DATA     BIT       IIC_ACK
      000000A8H.7 SFRSYM    DATA     BIT       EA
      000000EBH   SFRSYM    DATA     BYTE      TRISB
      000000ECH   SFRSYM    DATA     BYTE      TRISC
      000000B9H   SFRSYM    DATA     BYTE      DP_CON1
      00000091H   SFRSYM    DATA     BYTE      WDT_CTRL
      00000098H.4 SFRSYM    DATA     BIT       SCI_I
      000000FBH   SFRSYM    DATA     BYTE      PCD_CFG
      000000EEH   SFRSYM    DATA     BYTE      TRISE
      000000D1H   SFRSYM    DATA     BYTE      SPROG_DATA
      000000B3H   SFRSYM    DATA     BYTE      SCAN_WIDTH
      000000EFH   SFRSYM    DATA     BYTE      TRISF
      000000F2H   SFRSYM    DATA     BYTE      TRISG
      000000ACH   SFRSYM    DATA     BYTE      CSD_RAWDATAH
      000000F7H   SFRSYM    DATA     BYTE      TRISH
      000000FCH   SFRSYM    DATA     BYTE      PCD_CMD
      000000A8H   SFRSYM    DATA     BYTE      IEN0
      00000098H.2 SFRSYM    DATA     BIT       SCI_N
      000000E6H   SFRSYM    DATA     BYTE      IEN1
      000000E7H   SFRSYM    DATA     BYTE      IEN2
      000000ABH   SFRSYM    DATA     BYTE      CSD_RAWDATAL
      00000098H.0 SFRSYM    DATA     BIT       SCI_P
      000000FEH   SFRSYM    DATA     BYTE      PCD_BIT_ER
      000000E9H   SFRSYM    DATA     BYTE      IICBUFFER
      000000E8H   SFRSYM    DATA     BYTE      IICSTAT
      000000B8H   SFRSYM    DATA     BYTE      IPL0
      000000F6H   SFRSYM    DATA     BYTE      IPL1
      000000AFH   SFRSYM    DATA     BYTE      SCAN_START
      000000F4H   SFRSYM    DATA     BYTE      IPL2
      0000008EH   SFRSYM    DATA     BYTE      SOFT_RST
      000000C4H   SFRSYM    DATA     BYTE      ADCCKC
      000000B2H   SFRSYM    DATA     BYTE      DP_MODE
      000000D0H.7 SFRSYM    DATA     BIT       CY
      000000D5H   SFRSYM    DATA     BYTE      INT_POBO_STAT
      000000E3H   SFRSYM    DATA     BYTE      IICADD
      000000DCH   SFRSYM    DATA     BYTE      UART0_BDL
      000000C1H   SFRSYM    DATA     BYTE      ADC_SPT
      000000D6H   SFRSYM    DATA     BYTE      UART1_BDL
      00000081H   SFRSYM    DATA     BYTE      SP
      000000D0H.2 SFRSYM    DATA     BIT       OV
      000000C7H   SFRSYM    DATA     BYTE      EXINT_STAT
LX51 LINKER/LOCATER V4.66.100.0                                                       04/23/2024  19:14:21  PAGE 47


      00000094H   SFRSYM    DATA     BYTE      TIMER2_SET_H
      000000E2H   SFRSYM    DATA     BYTE      UART0_BUF
      00000085H   SFRSYM    DATA     BYTE      TIMER3_SET_H
      000000DBH   SFRSYM    DATA     BYTE      UART1_BUF
      000000CAH   SFRSYM    DATA     BYTE      PULL_I_SEL
      000000F1H   SFRSYM    DATA     BYTE      IRCON1
      000000E1H   SFRSYM    DATA     BYTE      IRCON2
      00000095H   SFRSYM    DATA     BYTE      TIMER2_SET_L
      00000086H   SFRSYM    DATA     BYTE      TIMER3_SET_L
      00000087H   SFRSYM    DATA     BYTE      PCON
      000000CEH   SFRSYM    DATA     BYTE      SPROG_ADDR_H
      000000EDH   SFRSYM    DATA     BYTE      SCI_C1
      000000E4H   SFRSYM    DATA     BYTE      IICBUF
      000000BAH   SFRSYM    DATA     BYTE      SCI_C2
      00000089H   SFRSYM    DATA     BYTE      TMOD
      00000088H   SFRSYM    DATA     BYTE      TCON
      000000CFH   SFRSYM    DATA     BYTE      SPROG_ADDR_L
      000000BBH   SFRSYM    DATA     BYTE      SCI_C3
      000000E8H.0 SFRSYM    DATA     BIT       IIC_RECOV
      000000E5H   SFRSYM    DATA     BYTE      IICCON
      000000E8H.4 SFRSYM    DATA     BIT       IIC_AD
      000000FDH   SFRSYM    DATA     BYTE      PCD_CFG2
      000000FFH   SFRSYM    DATA     BYTE      PCD_CFG3
      000000E8H.3 SFRSYM    DATA     BIT       IIC_BF
      00000088H.1 SFRSYM    DATA     BIT       IE0
      00000088H.3 SFRSYM    DATA     BIT       IE1
      000000F8H.0 SFRSYM    DATA     BIT       PA0
      000000F0H   SFRSYM    DATA     BYTE      B
      00000080H.0 SFRSYM    DATA     BIT       PB0
      000000F8H.1 SFRSYM    DATA     BIT       PA1
      000000D2H   SFRSYM    DATA     BYTE      SPROG_CMD
      00000090H.0 SFRSYM    DATA     BIT       PC0
      00000080H.1 SFRSYM    DATA     BIT       PB1
      000000F8H.2 SFRSYM    DATA     BIT       PA2
      00000090H.1 SFRSYM    DATA     BIT       PC1
      00000080H.2 SFRSYM    DATA     BIT       PB2
      000000F8H.3 SFRSYM    DATA     BIT       PA3
      00000098H   SFRSYM    DATA     BYTE      SCI_S1
      000000B0H.0 SFRSYM    DATA     BIT       PE0
      00000090H.2 SFRSYM    DATA     BIT       PC2
      00000080H.3 SFRSYM    DATA     BIT       PB3
      000000BCH   SFRSYM    DATA     BYTE      SCI_S2
      000000E8H.7 SFRSYM    DATA     BIT       IIC_START
      000000C0H.0 SFRSYM    DATA     BIT       PF0
      000000B0H.1 SFRSYM    DATA     BIT       PE1
      00000090H.3 SFRSYM    DATA     BIT       PC3
      00000080H.4 SFRSYM    DATA     BIT       PB4
      000000C8H.0 SFRSYM    DATA     BIT       PG0
      000000C0H.1 SFRSYM    DATA     BIT       PF1
      000000B0H.2 SFRSYM    DATA     BIT       PE2
      00000090H.4 SFRSYM    DATA     BIT       PC4
      00000080H.5 SFRSYM    DATA     BIT       PB5
      000000F9H   SFRSYM    DATA     BYTE      PCD_BUF1
      000000E0H   SFRSYM    DATA     BYTE      ACC
      000000D8H.0 SFRSYM    DATA     BIT       PH0
      000000C8H.1 SFRSYM    DATA     BIT       PG1
      000000C0H.2 SFRSYM    DATA     BIT       PF2
      000000B0H.3 SFRSYM    DATA     BIT       PE3
      00000090H.5 SFRSYM    DATA     BIT       PC5
      00000080H.6 SFRSYM    DATA     BIT       PB6
      000000FAH   SFRSYM    DATA     BYTE      PCD_BUF2
      000000D8H.1 SFRSYM    DATA     BIT       PH1
      000000C8H.2 SFRSYM    DATA     BIT       PG2
      000000C0H.3 SFRSYM    DATA     BIT       PF3
      000000B0H.4 SFRSYM    DATA     BIT       PE4
LX51 LINKER/LOCATER V4.66.100.0                                                       04/23/2024  19:14:21  PAGE 48


      000000A8H.1 SFRSYM    DATA     BIT       ET0
      00000090H.6 SFRSYM    DATA     BIT       PC6
      00000080H.7 SFRSYM    DATA     BIT       PB7
      000000D8H.2 SFRSYM    DATA     BIT       PH2
      000000C8H.3 SFRSYM    DATA     BIT       PG3
      000000C0H.4 SFRSYM    DATA     BIT       PF4
      000000B0H.5 SFRSYM    DATA     BIT       PE5
      000000A8H.3 SFRSYM    DATA     BIT       ET1
      00000090H.7 SFRSYM    DATA     BIT       PC7
      00000088H.5 SFRSYM    DATA     BIT       TF0
      000000D8H.3 SFRSYM    DATA     BIT       PH3
      000000C0H.5 SFRSYM    DATA     BIT       PF5
      000000B0H.6 SFRSYM    DATA     BIT       PE6
      00000088H.7 SFRSYM    DATA     BIT       TF1
      000000C9H   SFRSYM    DATA     BYTE      CSD_START
      000000D8H.4 SFRSYM    DATA     BIT       PH4
      000000C0H.6 SFRSYM    DATA     BIT       PF6
      000000B0H.7 SFRSYM    DATA     BIT       PE7
      0000008CH   SFRSYM    DATA     BYTE      TH0
      000000D8H.5 SFRSYM    DATA     BIT       PH5
      000000C0H.7 SFRSYM    DATA     BIT       PF7
      000000A8H.0 SFRSYM    DATA     BIT       EX0
      0000008DH   SFRSYM    DATA     BYTE      TH1
      000000D8H.6 SFRSYM    DATA     BIT       PH6
      000000A8H.2 SFRSYM    DATA     BIT       EX1
      000000D8H.7 SFRSYM    DATA     BIT       PH7
      000000D0H.0 SFRSYM    DATA     BIT       P
      000000B5H   SFRSYM    DATA     BYTE      SPI_CFG1
      000000BEH   SFRSYM    DATA     BYTE      SPI_STATE
      000000B6H   SFRSYM    DATA     BYTE      SPI_CFG2
      0000008AH   SFRSYM    DATA     BYTE      TL0
      000000DFH   SFRSYM    DATA     BYTE      UART0_STATE
      0000008BH   SFRSYM    DATA     BYTE      TL1
      000000DAH   SFRSYM    DATA     BYTE      UART1_STATE
      000000B8H.1 SFRSYM    DATA     BIT       PT0
      000000D0H.3 SFRSYM    DATA     BIT       RS0
      000000B8H.3 SFRSYM    DATA     BIT       PT1
      000000B1H   SFRSYM    DATA     BYTE      DP_CON
      000000D0H.4 SFRSYM    DATA     BIT       RS1
      00000088H.4 SFRSYM    DATA     BIT       TR0
      00000088H.6 SFRSYM    DATA     BIT       TR1
      000000B8H.0 SFRSYM    DATA     BIT       PX0
      000000D3H   SFRSYM    DATA     BYTE      SPROG_TIM
      00000098H.7 SFRSYM    DATA     BIT       SCI_TE
      00000098H.6 SFRSYM    DATA     BIT       SCI_TF
      000000B8H.2 SFRSYM    DATA     BIT       PX2
      00000097H   SFRSYM    DATA     BYTE      REG_DATA
      00000098H.5 SFRSYM    DATA     BIT       SCI_RI
      000000D4H   SFRSYM    DATA     BYTE      SPROG_RDATA
      00000096H   SFRSYM    DATA     BYTE      REG_ADDR
      000000F8H   SFRSYM    DATA     BYTE      DATAA
      00000083H   SFRSYM    DATA     BYTE      DPH
      00000080H   SFRSYM    DATA     BYTE      DATAB
      000000CBH   SFRSYM    DATA     BYTE      SNS_SCAN_CFG1
      00000090H   SFRSYM    DATA     BYTE      DATAC
      000000E8H.5 SFRSYM    DATA     BIT       IIC_RW
      000000CCH   SFRSYM    DATA     BYTE      SNS_SCAN_CFG2
      000000C5H   SFRSYM    DATA     BYTE      ADC_RDATAH
      000000DDH   SFRSYM    DATA     BYTE      UART0_CON1
      000000CDH   SFRSYM    DATA     BYTE      SNS_SCAN_CFG3
      000000B0H   SFRSYM    DATA     BYTE      DATAE
      00000082H   SFRSYM    DATA     BYTE      DPL
      00000098H.3 SFRSYM    DATA     BIT       SCI_RO
      000000DEH   SFRSYM    DATA     BYTE      UART0_CON2
      000000D7H   SFRSYM    DATA     BYTE      UART1_CON1
LX51 LINKER/LOCATER V4.66.100.0                                                       04/23/2024  19:14:21  PAGE 49


      000000C0H   SFRSYM    DATA     BYTE      DATAF
      000000D9H   SFRSYM    DATA     BYTE      UART1_CON2
      000000C8H   SFRSYM    DATA     BYTE      DATAG
      000000D8H   SFRSYM    DATA     BYTE      DATAH
      000000C6H   SFRSYM    DATA     BYTE      ADC_RDATAL
      00000092H   SFRSYM    DATA     BYTE      WDT_EN
      00000093H   SFRSYM    DATA     BYTE      TIMER2_CFG
      00000084H   SFRSYM    DATA     BYTE      TIMER3_CFG
      000000B4H   SFRSYM    DATA     BYTE      LED2_WIDTH
      000000E8H.1 SFRSYM    DATA     BIT       IIC_WCOL
      000000ADH   SFRSYM    DATA     BYTE      SYS_CLK_CFG
      000000C2H   SFRSYM    DATA     BYTE      SCI_INT_CLR
      000000D0H.5 SFRSYM    DATA     BIT       F0
      0000009CH   SFRSYM    DATA     BYTE      PWM0_H_H
      000000D0H.1 SFRSYM    DATA     BIT       F1
      000000A1H   SFRSYM    DATA     BYTE      PWM1_H_H
      000000A5H   SFRSYM    DATA     BYTE      PWM2_H_H
      000000AAH   SFRSYM    DATA     BYTE      PWM3_H_H
      0000009BH   SFRSYM    DATA     BYTE      PWM0_H_L
      0000009AH   SFRSYM    DATA     BYTE      PWM0_L_H
      000000D0H   SFRSYM    DATA     BYTE      PSW
      0000009FH   SFRSYM    DATA     BYTE      PWM1_H_L
      0000009EH   SFRSYM    DATA     BYTE      PWM1_L_H
      000000A4H   SFRSYM    DATA     BYTE      PWM2_H_L
      000000A3H   SFRSYM    DATA     BYTE      PWM2_L_H
      000000A9H   SFRSYM    DATA     BYTE      PWM3_H_L
      000000A7H   SFRSYM    DATA     BYTE      PWM3_L_H
      000000E8H.6 SFRSYM    DATA     BIT       IIC_STOP
      00000099H   SFRSYM    DATA     BYTE      PWM0_L_L
      020000B4H   SYMBOL    XDATA    BYTE      adjust_count

      01004732H   BLOCK     CODE     ---       LVL=0
      01004732H   BLOCK     CODE     NEAR LAB  LVL=1
      020001BEH   SYMBOL    XDATA    BYTE      i
      ---         BLOCKEND  ---      ---       LVL=1
      01004732H   LINE      CODE     ---       #207
      01004732H   LINE      CODE     ---       #208
      01004732H   LINE      CODE     ---       #210
      01004737H   LINE      CODE     ---       #212
      01004744H   LINE      CODE     ---       #213
      01004744H   LINE      CODE     ---       #214
      01004759H   LINE      CODE     ---       #216
      0100476CH   LINE      CODE     ---       #217
      0100476CH   LINE      CODE     ---       #218
      010047BEH   LINE      CODE     ---       #219
      010047C0H   LINE      CODE     ---       #221
      010047C0H   LINE      CODE     ---       #222
      01004814H   LINE      CODE     ---       #223
      01004814H   LINE      CODE     ---       #226
      0100484EH   LINE      CODE     ---       #227
      01004861H   LINE      CODE     ---       #229
      0100486AH   LINE      CODE     ---       #232
      ---         BLOCKEND  ---      ---       LVL=0

      010051A6H   BLOCK     CODE     ---       LVL=0
      010051A6H   LINE      CODE     ---       #240
      010051A6H   LINE      CODE     ---       #241
      010051A6H   LINE      CODE     ---       #242
      010051C0H   LINE      CODE     ---       #243
      010051D5H   LINE      CODE     ---       #252
      010051DBH   LINE      CODE     ---       #253
      ---         BLOCKEND  ---      ---       LVL=0

      01004973H   BLOCK     CODE     ---       LVL=0
      01004990H   BLOCK     CODE     NEAR LAB  LVL=1
LX51 LINKER/LOCATER V4.66.100.0                                                       04/23/2024  19:14:21  PAGE 50


      020000A9H   SYMBOL    XDATA    BYTE      addr_bak
      ---         BLOCKEND  ---      ---       LVL=1
      01004973H   LINE      CODE     ---       #262
      01004990H   LINE      CODE     ---       #264
      01004990H   LINE      CODE     ---       #265
      01004996H   LINE      CODE     ---       #266
      01004999H   LINE      CODE     ---       #268
      0100499CH   LINE      CODE     ---       #269
      010049A3H   LINE      CODE     ---       #271
      010049A9H   LINE      CODE     ---       #272
      010049A9H   LINE      CODE     ---       #277
      010049A9H   LINE      CODE     ---       #278
      010049ABH   LINE      CODE     ---       #279
      010049C7H   LINE      CODE     ---       #280
      010049C9H   LINE      CODE     ---       #281
      010049C9H   LINE      CODE     ---       #284
      010049CCH   LINE      CODE     ---       #285
      010049CCH   LINE      CODE     ---       #291
      010049CFH   LINE      CODE     ---       #293
      010049D1H   LINE      CODE     ---       #295
      010049D1H   LINE      CODE     ---       #296
      010049D4H   LINE      CODE     ---       #297
      010049D4H   LINE      CODE     ---       #304
      010049DAH   LINE      CODE     ---       #305
      010049EBH   LINE      CODE     ---       #306
      010049EBH   LINE      CODE     ---       #307
      010049EEH   LINE      CODE     ---       #308
      010049F4H   LINE      CODE     ---       #309
      010049FAH   LINE      CODE     ---       #310
      010049FAH   LINE      CODE     ---       #311
      010049FCH   LINE      CODE     ---       #312
      010049FEH   LINE      CODE     ---       #313
      010049FEH   LINE      CODE     ---       #314
      010049FEH   LINE      CODE     ---       #315
      010049FEH   LINE      CODE     ---       #316
      01004A07H   LINE      CODE     ---       #317
      01004A07H   LINE      CODE     ---       #318
      01004A09H   LINE      CODE     ---       #319
      01004A0BH   LINE      CODE     ---       #320
      01004A0BH   LINE      CODE     ---       #322
      01004A0EH   LINE      CODE     ---       #325
      01004A0EH   LINE      CODE     ---       #336
      01004A0EH   LINE      CODE     ---       #337
      01004A0EH   LINE      CODE     ---       #350
      01004A14H   LINE      CODE     ---       #351
      ---         BLOCKEND  ---      ---       LVL=0

      010050F6H   BLOCK     CODE     ---       LVL=0
      010050F6H   BLOCK     CODE     NEAR LAB  LVL=1
      020001BFH   SYMBOL    XDATA    BYTE      i
      ---         BLOCKEND  ---      ---       LVL=1
      010050F6H   LINE      CODE     ---       #362
      010050F6H   LINE      CODE     ---       #363
      010050F6H   LINE      CODE     ---       #365
      01005104H   LINE      CODE     ---       #366
      01005104H   LINE      CODE     ---       #368
      01005106H   LINE      CODE     ---       #369
      0100512BH   LINE      CODE     ---       #370
      0100512DH   LINE      CODE     ---       #372
      01005135H   LINE      CODE     ---       #373
      ---         BLOCKEND  ---      ---       LVL=0

      010040FBH   BLOCK     CODE     ---       LVL=0
      020001BEH   SYMBOL    XDATA    BYTE      sns
      010040FBH   LINE      CODE     ---       #382
LX51 LINKER/LOCATER V4.66.100.0                                                       04/23/2024  19:14:21  PAGE 51


      01004100H   LINE      CODE     ---       #383
      01004100H   LINE      CODE     ---       #385
      01004113H   LINE      CODE     ---       #386
      01004113H   LINE      CODE     ---       #387
      01004153H   LINE      CODE     ---       #388
      01004153H   LINE      CODE     ---       #389
      01004163H   LINE      CODE     ---       #391
      01004179H   LINE      CODE     ---       #392
      01004179H   LINE      CODE     ---       #393
      01004188H   LINE      CODE     ---       #394
      010041DDH   LINE      CODE     ---       #395
      010041DDH   LINE      CODE     ---       #396
      010041E0H   LINE      CODE     ---       #398
      010041E0H   LINE      CODE     ---       #399
      010041EFH   LINE      CODE     ---       #400
      010041EFH   LINE      CODE     ---       #401
      010041F2H   LINE      CODE     ---       #403
      010041F2H   LINE      CODE     ---       #404
      01004234H   LINE      CODE     ---       #405
      01004234H   LINE      CODE     ---       #406
      01004244H   LINE      CODE     ---       #408
      01004257H   LINE      CODE     ---       #409
      01004257H   LINE      CODE     ---       #410
      01004266H   LINE      CODE     ---       #411
      010042BDH   LINE      CODE     ---       #412
      010042BDH   LINE      CODE     ---       #413
      010042BFH   LINE      CODE     ---       #415
      010042BFH   LINE      CODE     ---       #416
      010042CEH   LINE      CODE     ---       #417
      010042CEH   LINE      CODE     ---       #418
      010042CEH   LINE      CODE     ---       #421
      010042FFH   LINE      CODE     ---       #422
      010042FFH   LINE      CODE     ---       #424
      0100430EH   LINE      CODE     ---       #425
      0100430EH   LINE      CODE     ---       #426
      01004311H   LINE      CODE     ---       #427
      01004318H   LINE      CODE     ---       #428
      0100432CH   LINE      CODE     ---       #429
      01004340H   LINE      CODE     ---       #430
      01004340H   LINE      CODE     ---       #433
      01004341H   LINE      CODE     ---       #435
      01004341H   LINE      CODE     ---       #436
      01004348H   LINE      CODE     ---       #437
      01004348H   LINE      CODE     ---       #440
      ---         BLOCKEND  ---      ---       LVL=0

      01002789H   BLOCK     CODE     ---       LVL=0
      020001BEH   SYMBOL    XDATA    BYTE      addr
      020001BFH   SYMBOL    XDATA    WORD      fth
      01002794H   BLOCK     CODE     NEAR LAB  LVL=1
      020001C1H   SYMBOL    XDATA    BYTE      i
      020001C2H   SYMBOL    XDATA    LONG      differ
      020001C6H   SYMBOL    XDATA    LONG      differ_mode1
      020001CAH   SYMBOL    XDATA    LONG      fth_tem
      ---         BLOCKEND  ---      ---       LVL=1
      01002789H   LINE      CODE     ---       #449
      01002794H   LINE      CODE     ---       #450
      01002794H   LINE      CODE     ---       #451
      01002797H   LINE      CODE     ---       #452
      0100279FH   LINE      CODE     ---       #453
      010027A9H   LINE      CODE     ---       #454
      010027B3H   LINE      CODE     ---       #455
      010027C4H   LINE      CODE     ---       #456
      01002806H   LINE      CODE     ---       #503
      01002819H   LINE      CODE     ---       #504
LX51 LINKER/LOCATER V4.66.100.0                                                       04/23/2024  19:14:21  PAGE 52


      01002819H   LINE      CODE     ---       #505
      01002853H   LINE      CODE     ---       #506
      01002853H   LINE      CODE     ---       #507
      01002879H   LINE      CODE     ---       #508
      01002879H   LINE      CODE     ---       #509
      0100287BH   LINE      CODE     ---       #511
      0100287BH   LINE      CODE     ---       #512
      010028B4H   LINE      CODE     ---       #513
      010028B4H   LINE      CODE     ---       #514
      010028DAH   LINE      CODE     ---       #515
      010028DAH   LINE      CODE     ---       #516
      010028DAH   LINE      CODE     ---       #684
      010028F6H   LINE      CODE     ---       #685
      010028F6H   LINE      CODE     ---       #704
      0100292DH   LINE      CODE     ---       #705
      0100292DH   LINE      CODE     ---       #707
      0100292DH   LINE      CODE     ---       #708
      0100295BH   LINE      CODE     ---       #709
      0100295BH   LINE      CODE     ---       #712
      0100296BH   LINE      CODE     ---       #714
      0100297AH   LINE      CODE     ---       #715
      01002989H   LINE      CODE     ---       #716
      01002998H   LINE      CODE     ---       #717
      010029A7H   LINE      CODE     ---       #718
      010029BDH   LINE      CODE     ---       #719
      010029BDH   LINE      CODE     ---       #720
      010029CCH   LINE      CODE     ---       #723
      010029E2H   LINE      CODE     ---       #724
      010029E2H   LINE      CODE     ---       #725
      01002A07H   LINE      CODE     ---       #726
      01002A07H   LINE      CODE     ---       #727
      01002A3EH   LINE      CODE     ---       #728
      01002A3EH   LINE      CODE     ---       #729
      01002A87H   LINE      CODE     ---       #730
      01002A87H   LINE      CODE     ---       #731
      01002A87H   LINE      CODE     ---       #732
      01002A8AH   LINE      CODE     ---       #734
      01002A8AH   LINE      CODE     ---       #735
      01002AB1H   LINE      CODE     ---       #736
      01002AB1H   LINE      CODE     ---       #737
      01002AE8H   LINE      CODE     ---       #738
      01002AE8H   LINE      CODE     ---       #740
      01002B31H   LINE      CODE     ---       #742
      01002B31H   LINE      CODE     ---       #743
      01002B31H   LINE      CODE     ---       #744
      01002B31H   LINE      CODE     ---       #747
      01002B31H   LINE      CODE     ---       #793
      01002B34H   LINE      CODE     ---       #795
      01002B34H   LINE      CODE     ---       #798
      01002B43H   LINE      CODE     ---       #799
      01002B53H   LINE      CODE     ---       #800
      01002B62H   LINE      CODE     ---       #801
      01002B71H   LINE      CODE     ---       #802
      01002B80H   LINE      CODE     ---       #803
      01002B96H   LINE      CODE     ---       #804
      01002B96H   LINE      CODE     ---       #805
      01002BA5H   LINE      CODE     ---       #808
      01002BB8H   LINE      CODE     ---       #809
      01002BB8H   LINE      CODE     ---       #810
      01002BDDH   LINE      CODE     ---       #811
      01002BDDH   LINE      CODE     ---       #812
      01002C05H   LINE      CODE     ---       #813
      01002C05H   LINE      CODE     ---       #814
      01002C08H   LINE      CODE     ---       #816
      01002C08H   LINE      CODE     ---       #817
LX51 LINKER/LOCATER V4.66.100.0                                                       04/23/2024  19:14:21  PAGE 53


      01002C2FH   LINE      CODE     ---       #818
      01002C2FH   LINE      CODE     ---       #819
      01002C57H   LINE      CODE     ---       #820
      01002C57H   LINE      CODE     ---       #821
      01002C57H   LINE      CODE     ---       #824
      01002C57H   LINE      CODE     ---       #856
      01002C57H   LINE      CODE     ---       #857
      01002C5AH   LINE      CODE     ---       #859
      01002C5AH   LINE      CODE     ---       #861
      01002C91H   LINE      CODE     ---       #862
      01002C91H   LINE      CODE     ---       #864
      01002CA0H   LINE      CODE     ---       #865
      01002CAFH   LINE      CODE     ---       #866
      01002CBFH   LINE      CODE     ---       #867
      01002CCEH   LINE      CODE     ---       #868
      01002CDDH   LINE      CODE     ---       #869
      01002CF3H   LINE      CODE     ---       #870
      01002CF3H   LINE      CODE     ---       #871
      01002D02H   LINE      CODE     ---       #874
      01002D15H   LINE      CODE     ---       #875
      01002D15H   LINE      CODE     ---       #876
      01002D3AH   LINE      CODE     ---       #877
      01002D3AH   LINE      CODE     ---       #878
      01002D62H   LINE      CODE     ---       #879
      01002D62H   LINE      CODE     ---       #880
      01002D65H   LINE      CODE     ---       #882
      01002D65H   LINE      CODE     ---       #883
      01002D8CH   LINE      CODE     ---       #884
      01002D8CH   LINE      CODE     ---       #885
      01002DB4H   LINE      CODE     ---       #886
      01002DB4H   LINE      CODE     ---       #887
      01002DB4H   LINE      CODE     ---       #890
      01002DB4H   LINE      CODE     ---       #922
      01002DB7H   LINE      CODE     ---       #923
      01002DEEH   LINE      CODE     ---       #924
      01002DEEH   LINE      CODE     ---       #926
      01002DFDH   LINE      CODE     ---       #927
      01002E0CH   LINE      CODE     ---       #928
      01002E1BH   LINE      CODE     ---       #929
      01002E2BH   LINE      CODE     ---       #930
      01002E3AH   LINE      CODE     ---       #932
      01002E50H   LINE      CODE     ---       #933
      01002E50H   LINE      CODE     ---       #934
      01002E5FH   LINE      CODE     ---       #938
      01002E72H   LINE      CODE     ---       #939
      01002E72H   LINE      CODE     ---       #940
      01002E97H   LINE      CODE     ---       #941
      01002E97H   LINE      CODE     ---       #942
      01002EE0H   LINE      CODE     ---       #943
      01002EE0H   LINE      CODE     ---       #944
      01002EE3H   LINE      CODE     ---       #946
      01002EE3H   LINE      CODE     ---       #947
      01002F0AH   LINE      CODE     ---       #948
      01002F0AH   LINE      CODE     ---       #949
      01002F53H   LINE      CODE     ---       #950
      01002F53H   LINE      CODE     ---       #951
      01002F53H   LINE      CODE     ---       #954
      01002F53H   LINE      CODE     ---       #986
      01002F56H   LINE      CODE     ---       #988
      01002F56H   LINE      CODE     ---       #990
      01002F65H   LINE      CODE     ---       #991
      01002F74H   LINE      CODE     ---       #992
      01002F83H   LINE      CODE     ---       #993
      01002F92H   LINE      CODE     ---       #994
      01002FA2H   LINE      CODE     ---       #995
LX51 LINKER/LOCATER V4.66.100.0                                                       04/23/2024  19:14:21  PAGE 54


      01002FB8H   LINE      CODE     ---       #996
      01002FB8H   LINE      CODE     ---       #997
      01002FC7H   LINE      CODE     ---       #1000
      01002FDAH   LINE      CODE     ---       #1001
      01002FDAH   LINE      CODE     ---       #1002
      01002FFFH   LINE      CODE     ---       #1003
      01002FFFH   LINE      CODE     ---       #1004
      01003048H   LINE      CODE     ---       #1005
      01003048H   LINE      CODE     ---       #1006
      0100304AH   LINE      CODE     ---       #1008
      0100304AH   LINE      CODE     ---       #1009
      0100306EH   LINE      CODE     ---       #1010
      0100306EH   LINE      CODE     ---       #1011
      010030B7H   LINE      CODE     ---       #1012
      010030B7H   LINE      CODE     ---       #1013
      010030B7H   LINE      CODE     ---       #1016
      010030B7H   LINE      CODE     ---       #1048
      010030B7H   LINE      CODE     ---       #1049
      010030B7H   LINE      CODE     ---       #1051
      010030D3H   LINE      CODE     ---       #1052
      010030D3H   LINE      CODE     ---       #1093
      0100310AH   LINE      CODE     ---       #1094
      0100310AH   LINE      CODE     ---       #1096
      0100311DH   LINE      CODE     ---       #1097
      0100311DH   LINE      CODE     ---       #1098
      01003172H   LINE      CODE     ---       #1099
      01003174H   LINE      CODE     ---       #1101
      01003174H   LINE      CODE     ---       #1102
      010031CBH   LINE      CODE     ---       #1103
      010031CBH   LINE      CODE     ---       #1104
      010031DAH   LINE      CODE     ---       #1105
      010031DDH   LINE      CODE     ---       #1107
      010031DDH   LINE      CODE     ---       #1108
      010031EDH   LINE      CODE     ---       #1109
      010031EDH   LINE      CODE     ---       #1112
      010031F0H   LINE      CODE     ---       #1114
      010031F0H   LINE      CODE     ---       #1116
      01003203H   LINE      CODE     ---       #1117
      01003203H   LINE      CODE     ---       #1118
      01003258H   LINE      CODE     ---       #1119
      0100325AH   LINE      CODE     ---       #1121
      0100325AH   LINE      CODE     ---       #1122
      010032B1H   LINE      CODE     ---       #1123
      010032B1H   LINE      CODE     ---       #1125
      010032C0H   LINE      CODE     ---       #1126
      010032C0H   LINE      CODE     ---       #1129
      010032D6H   LINE      CODE     ---       #1130
      010032D6H   LINE      CODE     ---       #1131
      010032ECH   LINE      CODE     ---       #1132
      010032ECH   LINE      CODE     ---       #1133
      01003376H   LINE      CODE     ---       #1134
      01003385H   LINE      CODE     ---       #1135
      01003386H   LINE      CODE     ---       #1137
      01003386H   LINE      CODE     ---       #1138
      01003412H   LINE      CODE     ---       #1139
      01003421H   LINE      CODE     ---       #1140
      01003421H   LINE      CODE     ---       #1141
      01003421H   LINE      CODE     ---       #1143
      01003421H   LINE      CODE     ---       #1146
      01003421H   LINE      CODE     ---       #1147
      ---         BLOCKEND  ---      ---       LVL=0

      01005259H   BLOCK     CODE     ---       LVL=0
      020001D7H   SYMBOL    XDATA    WORD      i_rank
      01005259H   LINE      CODE     ---       #1159
LX51 LINKER/LOCATER V4.66.100.0                                                       04/23/2024  19:14:21  PAGE 55


      01005261H   LINE      CODE     ---       #1160
      01005261H   LINE      CODE     ---       #1161
      0100527CH   LINE      CODE     ---       #1162
      ---         BLOCKEND  ---      ---       LVL=0

      010037E7H   BLOCK     CODE     ---       LVL=0
      010037E7H   LINE      CODE     ---       #1172
      010037E7H   LINE      CODE     ---       #1173
      010037E7H   LINE      CODE     ---       #1174
      010037F3H   LINE      CODE     ---       #1175
      010037F3H   LINE      CODE     ---       #1176
      010037F3H   LINE      CODE     ---       #1177
      010037F3H   LINE      CODE     ---       #1178
      010037F6H   LINE      CODE     ---       #1180
      0100381CH   LINE      CODE     ---       #1181
      0100381CH   LINE      CODE     ---       #1182
      0100383AH   LINE      CODE     ---       #1183
      0100383AH   LINE      CODE     ---       #1184
      01003853H   LINE      CODE     ---       #1185
      0100388CH   LINE      CODE     ---       #1187
      01003890H   LINE      CODE     ---       #1189
      01003890H   LINE      CODE     ---       #1191
      01003890H   LINE      CODE     ---       #1193
      01003896H   LINE      CODE     ---       #1194
      0100389CH   LINE      CODE     ---       #1195
      0100389CH   LINE      CODE     ---       #1196
      0100389EH   LINE      CODE     ---       #1197
      010038A2H   LINE      CODE     ---       #1198
      010038A4H   LINE      CODE     ---       #1199
      010038A4H   LINE      CODE     ---       #1201
      010038A8H   LINE      CODE     ---       #1203
      010038A8H   LINE      CODE     ---       #1204
      010038A8H   LINE      CODE     ---       #1206
      010038A8H   LINE      CODE     ---       #1207
      010038E9H   LINE      CODE     ---       #1208
      010038EFH   LINE      CODE     ---       #1209
      010038F8H   LINE      CODE     ---       #1210
      010038F8H   LINE      CODE     ---       #1211
      01003900H   LINE      CODE     ---       #1212
      01003900H   LINE      CODE     ---       #1213
      01003903H   LINE      CODE     ---       #1214
      01003903H   LINE      CODE     ---       #1216
      01003908H   LINE      CODE     ---       #1217
      01003923H   LINE      CODE     ---       #1218
      01003923H   LINE      CODE     ---       #1219
      0100393CH   LINE      CODE     ---       #1220
      01003975H   LINE      CODE     ---       #1221
      01003979H   LINE      CODE     ---       #1223
      01003979H   LINE      CODE     ---       #1225
      0100397CH   LINE      CODE     ---       #1226
      0100397EH   LINE      CODE     ---       #1227
      0100397EH   LINE      CODE     ---       #1229
      0100399CH   LINE      CODE     ---       #1230
      0100399CH   LINE      CODE     ---       #1231
      010039B5H   LINE      CODE     ---       #1232
      010039EEH   LINE      CODE     ---       #1233
      010039F2H   LINE      CODE     ---       #1235
      010039F2H   LINE      CODE     ---       #1237
      010039F2H   LINE      CODE     ---       #1238
      010039F6H   LINE      CODE     ---       #1240
      010039F6H   LINE      CODE     ---       #1241
      010039F6H   LINE      CODE     ---       #1242
      010039F6H   LINE      CODE     ---       #1243
      010039F6H   LINE      CODE     ---       #1245
      01003A02H   LINE      CODE     ---       #1246
LX51 LINKER/LOCATER V4.66.100.0                                                       04/23/2024  19:14:21  PAGE 56


      01003A02H   LINE      CODE     ---       #1247
      01003A02H   LINE      CODE     ---       #1248
      01003A02H   LINE      CODE     ---       #1249
      01003A05H   LINE      CODE     ---       #1251
      01003A2BH   LINE      CODE     ---       #1252
      01003A2BH   LINE      CODE     ---       #1253
      01003A49H   LINE      CODE     ---       #1254
      01003A49H   LINE      CODE     ---       #1255
      01003A62H   LINE      CODE     ---       #1256
      01003A9BH   LINE      CODE     ---       #1258
      01003A9FH   LINE      CODE     ---       #1260
      01003A9FH   LINE      CODE     ---       #1262
      01003A9FH   LINE      CODE     ---       #1263
      01003AA5H   LINE      CODE     ---       #1264
      01003AABH   LINE      CODE     ---       #1265
      01003AABH   LINE      CODE     ---       #1266
      01003AADH   LINE      CODE     ---       #1267
      01003AB1H   LINE      CODE     ---       #1268
      01003AB3H   LINE      CODE     ---       #1269
      01003AB3H   LINE      CODE     ---       #1270
      01003AB7H   LINE      CODE     ---       #1272
      01003AB7H   LINE      CODE     ---       #1273
      01003AB7H   LINE      CODE     ---       #1275
      01003AB7H   LINE      CODE     ---       #1276
      01003AF8H   LINE      CODE     ---       #1277
      01003AFEH   LINE      CODE     ---       #1278
      01003B04H   LINE      CODE     ---       #1279
      01003B04H   LINE      CODE     ---       #1280
      01003B06H   LINE      CODE     ---       #1283
      01003B0EH   LINE      CODE     ---       #1284
      01003B0EH   LINE      CODE     ---       #1285
      01003B11H   LINE      CODE     ---       #1286
      01003B11H   LINE      CODE     ---       #1287
      01003B1AH   LINE      CODE     ---       #1288
      01003B1AH   LINE      CODE     ---       #1289
      01003B1CH   LINE      CODE     ---       #1290
      01003B1EH   LINE      CODE     ---       #1291
      01003B1EH   LINE      CODE     ---       #1292
      01003B21H   LINE      CODE     ---       #1293
      01003B22H   LINE      CODE     ---       #1294
      01003B22H   LINE      CODE     ---       #1296
      01003B40H   LINE      CODE     ---       #1297
      01003B40H   LINE      CODE     ---       #1298
      01003B59H   LINE      CODE     ---       #1299
      01003B92H   LINE      CODE     ---       #1300
      01003B96H   LINE      CODE     ---       #1302
      01003B96H   LINE      CODE     ---       #1304
      01003B96H   LINE      CODE     ---       #1305
      01003B99H   LINE      CODE     ---       #1307
      01003B99H   LINE      CODE     ---       #1308
      01003B99H   LINE      CODE     ---       #1309
      01003B99H   LINE      CODE     ---       #1310
      01003B99H   LINE      CODE     ---       #1311
      ---         BLOCKEND  ---      ---       LVL=0

      ---         MODULE    ---      ---       BF7615BMXX_XXXX_CTK_TOUCH
      02000203H   PUBLIC    XDATA    BYTE      CFG_Rb
      02000202H   PUBLIC    XDATA    BYTE      Sns_Count
      01004ACCH   PUBLIC    CODE     ---       BF7615BMXX_XXXX_Set_Touch_Flag
      000000BFH   SFRSYM    DATA     BYTE      SPI_SPID
      0000009DH   SFRSYM    DATA     BYTE      PWM1_L_L
      000000AEH   SFRSYM    DATA     BYTE      INT_PE_STAT
      000000A2H   SFRSYM    DATA     BYTE      PWM2_L_L
      000000C3H   SFRSYM    DATA     BYTE      ADC_SCAN_CFG
      000000A6H   SFRSYM    DATA     BYTE      PWM3_L_L
LX51 LINKER/LOCATER V4.66.100.0                                                       04/23/2024  19:14:21  PAGE 57


      000000A0H   SFRSYM    DATA     BYTE      P2_XH
      000000D0H.6 SFRSYM    DATA     BIT       AC
      000000BDH   SFRSYM    DATA     BYTE      SCI_D
      000000EAH   SFRSYM    DATA     BYTE      TRISA
      00000098H.1 SFRSYM    DATA     BIT       SCI_F
      000000E8H.2 SFRSYM    DATA     BIT       IIC_ACK
      000000A8H.7 SFRSYM    DATA     BIT       EA
      000000EBH   SFRSYM    DATA     BYTE      TRISB
      000000ECH   SFRSYM    DATA     BYTE      TRISC
      000000B9H   SFRSYM    DATA     BYTE      DP_CON1
      00000091H   SFRSYM    DATA     BYTE      WDT_CTRL
      00000098H.4 SFRSYM    DATA     BIT       SCI_I
      000000FBH   SFRSYM    DATA     BYTE      PCD_CFG
      000000EEH   SFRSYM    DATA     BYTE      TRISE
      000000D1H   SFRSYM    DATA     BYTE      SPROG_DATA
      000000B3H   SFRSYM    DATA     BYTE      SCAN_WIDTH
      000000EFH   SFRSYM    DATA     BYTE      TRISF
      000000F2H   SFRSYM    DATA     BYTE      TRISG
      000000ACH   SFRSYM    DATA     BYTE      CSD_RAWDATAH
      000000F7H   SFRSYM    DATA     BYTE      TRISH
      000000FCH   SFRSYM    DATA     BYTE      PCD_CMD
      000000A8H   SFRSYM    DATA     BYTE      IEN0
      00000098H.2 SFRSYM    DATA     BIT       SCI_N
      000000E6H   SFRSYM    DATA     BYTE      IEN1
      000000E7H   SFRSYM    DATA     BYTE      IEN2
      000000ABH   SFRSYM    DATA     BYTE      CSD_RAWDATAL
      00000098H.0 SFRSYM    DATA     BIT       SCI_P
      000000FEH   SFRSYM    DATA     BYTE      PCD_BIT_ER
      000000E9H   SFRSYM    DATA     BYTE      IICBUFFER
      000000E8H   SFRSYM    DATA     BYTE      IICSTAT
      000000B8H   SFRSYM    DATA     BYTE      IPL0
      000000F6H   SFRSYM    DATA     BYTE      IPL1
      000000AFH   SFRSYM    DATA     BYTE      SCAN_START
      000000F4H   SFRSYM    DATA     BYTE      IPL2
      0000008EH   SFRSYM    DATA     BYTE      SOFT_RST
      000000C4H   SFRSYM    DATA     BYTE      ADCCKC
      000000B2H   SFRSYM    DATA     BYTE      DP_MODE
      000000D0H.7 SFRSYM    DATA     BIT       CY
      000000D5H   SFRSYM    DATA     BYTE      INT_POBO_STAT
      000000E3H   SFRSYM    DATA     BYTE      IICADD
      000000DCH   SFRSYM    DATA     BYTE      UART0_BDL
      000000C1H   SFRSYM    DATA     BYTE      ADC_SPT
      000000D6H   SFRSYM    DATA     BYTE      UART1_BDL
      00000081H   SFRSYM    DATA     BYTE      SP
      000000D0H.2 SFRSYM    DATA     BIT       OV
      000000C7H   SFRSYM    DATA     BYTE      EXINT_STAT
      00000094H   SFRSYM    DATA     BYTE      TIMER2_SET_H
      000000E2H   SFRSYM    DATA     BYTE      UART0_BUF
      00000085H   SFRSYM    DATA     BYTE      TIMER3_SET_H
      000000DBH   SFRSYM    DATA     BYTE      UART1_BUF
      000000CAH   SFRSYM    DATA     BYTE      PULL_I_SEL
      000000F1H   SFRSYM    DATA     BYTE      IRCON1
      000000E1H   SFRSYM    DATA     BYTE      IRCON2
      00000095H   SFRSYM    DATA     BYTE      TIMER2_SET_L
      00000086H   SFRSYM    DATA     BYTE      TIMER3_SET_L
      00000087H   SFRSYM    DATA     BYTE      PCON
      000000CEH   SFRSYM    DATA     BYTE      SPROG_ADDR_H
      000000EDH   SFRSYM    DATA     BYTE      SCI_C1
      000000E4H   SFRSYM    DATA     BYTE      IICBUF
      000000BAH   SFRSYM    DATA     BYTE      SCI_C2
      00000089H   SFRSYM    DATA     BYTE      TMOD
      00000088H   SFRSYM    DATA     BYTE      TCON
      000000CFH   SFRSYM    DATA     BYTE      SPROG_ADDR_L
      000000BBH   SFRSYM    DATA     BYTE      SCI_C3
      000000E8H.0 SFRSYM    DATA     BIT       IIC_RECOV
LX51 LINKER/LOCATER V4.66.100.0                                                       04/23/2024  19:14:21  PAGE 58


      000000E5H   SFRSYM    DATA     BYTE      IICCON
      000000E8H.4 SFRSYM    DATA     BIT       IIC_AD
      000000FDH   SFRSYM    DATA     BYTE      PCD_CFG2
      000000FFH   SFRSYM    DATA     BYTE      PCD_CFG3
      000000E8H.3 SFRSYM    DATA     BIT       IIC_BF
      00000088H.1 SFRSYM    DATA     BIT       IE0
      00000088H.3 SFRSYM    DATA     BIT       IE1
      000000F8H.0 SFRSYM    DATA     BIT       PA0
      000000F0H   SFRSYM    DATA     BYTE      B
      00000080H.0 SFRSYM    DATA     BIT       PB0
      000000F8H.1 SFRSYM    DATA     BIT       PA1
      000000D2H   SFRSYM    DATA     BYTE      SPROG_CMD
      00000090H.0 SFRSYM    DATA     BIT       PC0
      00000080H.1 SFRSYM    DATA     BIT       PB1
      000000F8H.2 SFRSYM    DATA     BIT       PA2
      00000090H.1 SFRSYM    DATA     BIT       PC1
      00000080H.2 SFRSYM    DATA     BIT       PB2
      000000F8H.3 SFRSYM    DATA     BIT       PA3
      00000098H   SFRSYM    DATA     BYTE      SCI_S1
      000000B0H.0 SFRSYM    DATA     BIT       PE0
      00000090H.2 SFRSYM    DATA     BIT       PC2
      00000080H.3 SFRSYM    DATA     BIT       PB3
      000000BCH   SFRSYM    DATA     BYTE      SCI_S2
      000000E8H.7 SFRSYM    DATA     BIT       IIC_START
      000000C0H.0 SFRSYM    DATA     BIT       PF0
      000000B0H.1 SFRSYM    DATA     BIT       PE1
      00000090H.3 SFRSYM    DATA     BIT       PC3
      00000080H.4 SFRSYM    DATA     BIT       PB4
      000000C8H.0 SFRSYM    DATA     BIT       PG0
      000000C0H.1 SFRSYM    DATA     BIT       PF1
      000000B0H.2 SFRSYM    DATA     BIT       PE2
      00000090H.4 SFRSYM    DATA     BIT       PC4
      00000080H.5 SFRSYM    DATA     BIT       PB5
      000000F9H   SFRSYM    DATA     BYTE      PCD_BUF1
      000000E0H   SFRSYM    DATA     BYTE      ACC
      000000D8H.0 SFRSYM    DATA     BIT       PH0
      000000C8H.1 SFRSYM    DATA     BIT       PG1
      000000C0H.2 SFRSYM    DATA     BIT       PF2
      000000B0H.3 SFRSYM    DATA     BIT       PE3
      00000090H.5 SFRSYM    DATA     BIT       PC5
      00000080H.6 SFRSYM    DATA     BIT       PB6
      000000FAH   SFRSYM    DATA     BYTE      PCD_BUF2
      000000D8H.1 SFRSYM    DATA     BIT       PH1
      000000C8H.2 SFRSYM    DATA     BIT       PG2
      000000C0H.3 SFRSYM    DATA     BIT       PF3
      000000B0H.4 SFRSYM    DATA     BIT       PE4
      000000A8H.1 SFRSYM    DATA     BIT       ET0
      00000090H.6 SFRSYM    DATA     BIT       PC6
      00000080H.7 SFRSYM    DATA     BIT       PB7
      000000D8H.2 SFRSYM    DATA     BIT       PH2
      000000C8H.3 SFRSYM    DATA     BIT       PG3
      000000C0H.4 SFRSYM    DATA     BIT       PF4
      000000B0H.5 SFRSYM    DATA     BIT       PE5
      000000A8H.3 SFRSYM    DATA     BIT       ET1
      00000090H.7 SFRSYM    DATA     BIT       PC7
      00000088H.5 SFRSYM    DATA     BIT       TF0
      000000D8H.3 SFRSYM    DATA     BIT       PH3
      000000C0H.5 SFRSYM    DATA     BIT       PF5
      000000B0H.6 SFRSYM    DATA     BIT       PE6
      00000088H.7 SFRSYM    DATA     BIT       TF1
      000000C9H   SFRSYM    DATA     BYTE      CSD_START
      000000D8H.4 SFRSYM    DATA     BIT       PH4
      000000C0H.6 SFRSYM    DATA     BIT       PF6
      000000B0H.7 SFRSYM    DATA     BIT       PE7
      0000008CH   SFRSYM    DATA     BYTE      TH0
LX51 LINKER/LOCATER V4.66.100.0                                                       04/23/2024  19:14:21  PAGE 59


      000000D8H.5 SFRSYM    DATA     BIT       PH5
      000000C0H.7 SFRSYM    DATA     BIT       PF7
      000000A8H.0 SFRSYM    DATA     BIT       EX0
      0000008DH   SFRSYM    DATA     BYTE      TH1
      000000D8H.6 SFRSYM    DATA     BIT       PH6
      000000A8H.2 SFRSYM    DATA     BIT       EX1
      000000D8H.7 SFRSYM    DATA     BIT       PH7
      000000D0H.0 SFRSYM    DATA     BIT       P
      000000B5H   SFRSYM    DATA     BYTE      SPI_CFG1
      000000BEH   SFRSYM    DATA     BYTE      SPI_STATE
      000000B6H   SFRSYM    DATA     BYTE      SPI_CFG2
      0000008AH   SFRSYM    DATA     BYTE      TL0
      000000DFH   SFRSYM    DATA     BYTE      UART0_STATE
      0000008BH   SFRSYM    DATA     BYTE      TL1
      000000DAH   SFRSYM    DATA     BYTE      UART1_STATE
      000000B8H.1 SFRSYM    DATA     BIT       PT0
      000000D0H.3 SFRSYM    DATA     BIT       RS0
      000000B8H.3 SFRSYM    DATA     BIT       PT1
      000000B1H   SFRSYM    DATA     BYTE      DP_CON
      000000D0H.4 SFRSYM    DATA     BIT       RS1
      00000088H.4 SFRSYM    DATA     BIT       TR0
      00000088H.6 SFRSYM    DATA     BIT       TR1
      000000B8H.0 SFRSYM    DATA     BIT       PX0
      000000D3H   SFRSYM    DATA     BYTE      SPROG_TIM
      00000098H.7 SFRSYM    DATA     BIT       SCI_TE
      00000098H.6 SFRSYM    DATA     BIT       SCI_TF
      000000B8H.2 SFRSYM    DATA     BIT       PX2
      00000097H   SFRSYM    DATA     BYTE      REG_DATA
      00000098H.5 SFRSYM    DATA     BIT       SCI_RI
      000000D4H   SFRSYM    DATA     BYTE      SPROG_RDATA
      00000096H   SFRSYM    DATA     BYTE      REG_ADDR
      000000F8H   SFRSYM    DATA     BYTE      DATAA
      00000083H   SFRSYM    DATA     BYTE      DPH
      00000080H   SFRSYM    DATA     BYTE      DATAB
      000000CBH   SFRSYM    DATA     BYTE      SNS_SCAN_CFG1
      00000090H   SFRSYM    DATA     BYTE      DATAC
      000000E8H.5 SFRSYM    DATA     BIT       IIC_RW
      000000CCH   SFRSYM    DATA     BYTE      SNS_SCAN_CFG2
      000000C5H   SFRSYM    DATA     BYTE      ADC_RDATAH
      000000DDH   SFRSYM    DATA     BYTE      UART0_CON1
      000000CDH   SFRSYM    DATA     BYTE      SNS_SCAN_CFG3
      000000B0H   SFRSYM    DATA     BYTE      DATAE
      00000082H   SFRSYM    DATA     BYTE      DPL
      00000098H.3 SFRSYM    DATA     BIT       SCI_RO
      000000DEH   SFRSYM    DATA     BYTE      UART0_CON2
      000000D7H   SFRSYM    DATA     BYTE      UART1_CON1
      000000C0H   SFRSYM    DATA     BYTE      DATAF
      000000D9H   SFRSYM    DATA     BYTE      UART1_CON2
      000000C8H   SFRSYM    DATA     BYTE      DATAG
      000000D8H   SFRSYM    DATA     BYTE      DATAH
      000000C6H   SFRSYM    DATA     BYTE      ADC_RDATAL
      00000092H   SFRSYM    DATA     BYTE      WDT_EN
      00000093H   SFRSYM    DATA     BYTE      TIMER2_CFG
      00000084H   SFRSYM    DATA     BYTE      TIMER3_CFG
      000000B4H   SFRSYM    DATA     BYTE      LED2_WIDTH
      000000E8H.1 SFRSYM    DATA     BIT       IIC_WCOL
      000000ADH   SFRSYM    DATA     BYTE      SYS_CLK_CFG
      000000C2H   SFRSYM    DATA     BYTE      SCI_INT_CLR
      000000D0H.5 SFRSYM    DATA     BIT       F0
      0000009CH   SFRSYM    DATA     BYTE      PWM0_H_H
      000000D0H.1 SFRSYM    DATA     BIT       F1
      000000A1H   SFRSYM    DATA     BYTE      PWM1_H_H
      000000A5H   SFRSYM    DATA     BYTE      PWM2_H_H
      000000AAH   SFRSYM    DATA     BYTE      PWM3_H_H
      0000009BH   SFRSYM    DATA     BYTE      PWM0_H_L
LX51 LINKER/LOCATER V4.66.100.0                                                       04/23/2024  19:14:21  PAGE 60


      0000009AH   SFRSYM    DATA     BYTE      PWM0_L_H
      000000D0H   SFRSYM    DATA     BYTE      PSW
      0000009FH   SFRSYM    DATA     BYTE      PWM1_H_L
      0000009EH   SFRSYM    DATA     BYTE      PWM1_L_H
      000000A4H   SFRSYM    DATA     BYTE      PWM2_H_L
      000000A3H   SFRSYM    DATA     BYTE      PWM2_L_H
      000000A9H   SFRSYM    DATA     BYTE      PWM3_H_L
      000000A7H   SFRSYM    DATA     BYTE      PWM3_L_H
      000000E8H.6 SFRSYM    DATA     BIT       IIC_STOP
      00000099H   SFRSYM    DATA     BYTE      PWM0_L_L

      01004ACCH   BLOCK     CODE     ---       LVL=0
      01004ACCH   LINE      CODE     ---       #58
      01004ACCH   LINE      CODE     ---       #59
      01004ACCH   LINE      CODE     ---       #209
      01004AD2H   LINE      CODE     ---       #210
      01004AD2H   LINE      CODE     ---       #211
      01004AD4H   LINE      CODE     ---       #212
      01004AD7H   LINE      CODE     ---       #213
      01004ADCH   LINE      CODE     ---       #214
      01004AE9H   LINE      CODE     ---       #215
      01004AE9H   LINE      CODE     ---       #216
      01004AF7H   LINE      CODE     ---       #217
      01004AF7H   LINE      CODE     ---       #219
      01004B53H   LINE      CODE     ---       #227
      01004B5BH   LINE      CODE     ---       #318
      01004B5BH   LINE      CODE     ---       #319
      01004B64H   LINE      CODE     ---       #339
      01004B67H   LINE      CODE     ---       #340
      01004B67H   LINE      CODE     ---       #344
      ---         BLOCKEND  ---      ---       LVL=0

      ---         MODULE    ---      ---       BF7615BMXX_XXXX_CTK_TRACE
      000000BFH   SFRSYM    DATA     BYTE      SPI_SPID
      0000009DH   SFRSYM    DATA     BYTE      PWM1_L_L
      000000AEH   SFRSYM    DATA     BYTE      INT_PE_STAT
      000000A2H   SFRSYM    DATA     BYTE      PWM2_L_L
      000000C3H   SFRSYM    DATA     BYTE      ADC_SCAN_CFG
      000000A6H   SFRSYM    DATA     BYTE      PWM3_L_L
      000000A0H   SFRSYM    DATA     BYTE      P2_XH
      000000D0H.6 SFRSYM    DATA     BIT       AC
      000000BDH   SFRSYM    DATA     BYTE      SCI_D
      000000EAH   SFRSYM    DATA     BYTE      TRISA
      00000098H.1 SFRSYM    DATA     BIT       SCI_F
      000000E8H.2 SFRSYM    DATA     BIT       IIC_ACK
      000000A8H.7 SFRSYM    DATA     BIT       EA
      000000EBH   SFRSYM    DATA     BYTE      TRISB
      000000ECH   SFRSYM    DATA     BYTE      TRISC
      000000B9H   SFRSYM    DATA     BYTE      DP_CON1
      00000091H   SFRSYM    DATA     BYTE      WDT_CTRL
      00000098H.4 SFRSYM    DATA     BIT       SCI_I
      000000FBH   SFRSYM    DATA     BYTE      PCD_CFG
      000000EEH   SFRSYM    DATA     BYTE      TRISE
      000000D1H   SFRSYM    DATA     BYTE      SPROG_DATA
      000000B3H   SFRSYM    DATA     BYTE      SCAN_WIDTH
      000000EFH   SFRSYM    DATA     BYTE      TRISF
      000000F2H   SFRSYM    DATA     BYTE      TRISG
      000000ACH   SFRSYM    DATA     BYTE      CSD_RAWDATAH
      000000F7H   SFRSYM    DATA     BYTE      TRISH
      000000FCH   SFRSYM    DATA     BYTE      PCD_CMD
      000000A8H   SFRSYM    DATA     BYTE      IEN0
      00000098H.2 SFRSYM    DATA     BIT       SCI_N
      000000E6H   SFRSYM    DATA     BYTE      IEN1
      000000E7H   SFRSYM    DATA     BYTE      IEN2
      000000ABH   SFRSYM    DATA     BYTE      CSD_RAWDATAL
LX51 LINKER/LOCATER V4.66.100.0                                                       04/23/2024  19:14:21  PAGE 61


      00000098H.0 SFRSYM    DATA     BIT       SCI_P
      000000FEH   SFRSYM    DATA     BYTE      PCD_BIT_ER
      000000E9H   SFRSYM    DATA     BYTE      IICBUFFER
      000000E8H   SFRSYM    DATA     BYTE      IICSTAT
      000000B8H   SFRSYM    DATA     BYTE      IPL0
      000000F6H   SFRSYM    DATA     BYTE      IPL1
      000000AFH   SFRSYM    DATA     BYTE      SCAN_START
      000000F4H   SFRSYM    DATA     BYTE      IPL2
      0000008EH   SFRSYM    DATA     BYTE      SOFT_RST
      000000C4H   SFRSYM    DATA     BYTE      ADCCKC
      000000B2H   SFRSYM    DATA     BYTE      DP_MODE
      000000D0H.7 SFRSYM    DATA     BIT       CY
      000000D5H   SFRSYM    DATA     BYTE      INT_POBO_STAT
      000000E3H   SFRSYM    DATA     BYTE      IICADD
      000000DCH   SFRSYM    DATA     BYTE      UART0_BDL
      000000C1H   SFRSYM    DATA     BYTE      ADC_SPT
      000000D6H   SFRSYM    DATA     BYTE      UART1_BDL
      00000081H   SFRSYM    DATA     BYTE      SP
      000000D0H.2 SFRSYM    DATA     BIT       OV
      000000C7H   SFRSYM    DATA     BYTE      EXINT_STAT
      00000094H   SFRSYM    DATA     BYTE      TIMER2_SET_H
      000000E2H   SFRSYM    DATA     BYTE      UART0_BUF
      00000085H   SFRSYM    DATA     BYTE      TIMER3_SET_H
      000000DBH   SFRSYM    DATA     BYTE      UART1_BUF
      000000CAH   SFRSYM    DATA     BYTE      PULL_I_SEL
      000000F1H   SFRSYM    DATA     BYTE      IRCON1
      000000E1H   SFRSYM    DATA     BYTE      IRCON2
      00000095H   SFRSYM    DATA     BYTE      TIMER2_SET_L
      00000086H   SFRSYM    DATA     BYTE      TIMER3_SET_L
      00000087H   SFRSYM    DATA     BYTE      PCON
      000000CEH   SFRSYM    DATA     BYTE      SPROG_ADDR_H
      000000EDH   SFRSYM    DATA     BYTE      SCI_C1
      000000E4H   SFRSYM    DATA     BYTE      IICBUF
      000000BAH   SFRSYM    DATA     BYTE      SCI_C2
      00000089H   SFRSYM    DATA     BYTE      TMOD
      00000088H   SFRSYM    DATA     BYTE      TCON
      000000CFH   SFRSYM    DATA     BYTE      SPROG_ADDR_L
      000000BBH   SFRSYM    DATA     BYTE      SCI_C3
      000000E8H.0 SFRSYM    DATA     BIT       IIC_RECOV
      000000E5H   SFRSYM    DATA     BYTE      IICCON
      000000E8H.4 SFRSYM    DATA     BIT       IIC_AD
      000000FDH   SFRSYM    DATA     BYTE      PCD_CFG2
      000000FFH   SFRSYM    DATA     BYTE      PCD_CFG3
      000000E8H.3 SFRSYM    DATA     BIT       IIC_BF
      00000088H.1 SFRSYM    DATA     BIT       IE0
      00000088H.3 SFRSYM    DATA     BIT       IE1
      000000F8H.0 SFRSYM    DATA     BIT       PA0
      000000F0H   SFRSYM    DATA     BYTE      B
      00000080H.0 SFRSYM    DATA     BIT       PB0
      000000F8H.1 SFRSYM    DATA     BIT       PA1
      000000D2H   SFRSYM    DATA     BYTE      SPROG_CMD
      00000090H.0 SFRSYM    DATA     BIT       PC0
      00000080H.1 SFRSYM    DATA     BIT       PB1
      000000F8H.2 SFRSYM    DATA     BIT       PA2
      00000090H.1 SFRSYM    DATA     BIT       PC1
      00000080H.2 SFRSYM    DATA     BIT       PB2
      000000F8H.3 SFRSYM    DATA     BIT       PA3
      00000098H   SFRSYM    DATA     BYTE      SCI_S1
      000000B0H.0 SFRSYM    DATA     BIT       PE0
      00000090H.2 SFRSYM    DATA     BIT       PC2
      00000080H.3 SFRSYM    DATA     BIT       PB3
      000000BCH   SFRSYM    DATA     BYTE      SCI_S2
      000000E8H.7 SFRSYM    DATA     BIT       IIC_START
      000000C0H.0 SFRSYM    DATA     BIT       PF0
      000000B0H.1 SFRSYM    DATA     BIT       PE1
LX51 LINKER/LOCATER V4.66.100.0                                                       04/23/2024  19:14:21  PAGE 62


      00000090H.3 SFRSYM    DATA     BIT       PC3
      00000080H.4 SFRSYM    DATA     BIT       PB4
      000000C8H.0 SFRSYM    DATA     BIT       PG0
      000000C0H.1 SFRSYM    DATA     BIT       PF1
      000000B0H.2 SFRSYM    DATA     BIT       PE2
      00000090H.4 SFRSYM    DATA     BIT       PC4
      00000080H.5 SFRSYM    DATA     BIT       PB5
      000000F9H   SFRSYM    DATA     BYTE      PCD_BUF1
      000000E0H   SFRSYM    DATA     BYTE      ACC
      000000D8H.0 SFRSYM    DATA     BIT       PH0
      000000C8H.1 SFRSYM    DATA     BIT       PG1
      000000C0H.2 SFRSYM    DATA     BIT       PF2
      000000B0H.3 SFRSYM    DATA     BIT       PE3
      00000090H.5 SFRSYM    DATA     BIT       PC5
      00000080H.6 SFRSYM    DATA     BIT       PB6
      000000FAH   SFRSYM    DATA     BYTE      PCD_BUF2
      000000D8H.1 SFRSYM    DATA     BIT       PH1
      000000C8H.2 SFRSYM    DATA     BIT       PG2
      000000C0H.3 SFRSYM    DATA     BIT       PF3
      000000B0H.4 SFRSYM    DATA     BIT       PE4
      000000A8H.1 SFRSYM    DATA     BIT       ET0
      00000090H.6 SFRSYM    DATA     BIT       PC6
      00000080H.7 SFRSYM    DATA     BIT       PB7
      000000D8H.2 SFRSYM    DATA     BIT       PH2
      000000C8H.3 SFRSYM    DATA     BIT       PG3
      000000C0H.4 SFRSYM    DATA     BIT       PF4
      000000B0H.5 SFRSYM    DATA     BIT       PE5
      000000A8H.3 SFRSYM    DATA     BIT       ET1
      00000090H.7 SFRSYM    DATA     BIT       PC7
      00000088H.5 SFRSYM    DATA     BIT       TF0
      000000D8H.3 SFRSYM    DATA     BIT       PH3
      000000C0H.5 SFRSYM    DATA     BIT       PF5
      000000B0H.6 SFRSYM    DATA     BIT       PE6
      00000088H.7 SFRSYM    DATA     BIT       TF1
      000000C9H   SFRSYM    DATA     BYTE      CSD_START
      000000D8H.4 SFRSYM    DATA     BIT       PH4
      000000C0H.6 SFRSYM    DATA     BIT       PF6
      000000B0H.7 SFRSYM    DATA     BIT       PE7
      0000008CH   SFRSYM    DATA     BYTE      TH0
      000000D8H.5 SFRSYM    DATA     BIT       PH5
      000000C0H.7 SFRSYM    DATA     BIT       PF7
      000000A8H.0 SFRSYM    DATA     BIT       EX0
      0000008DH   SFRSYM    DATA     BYTE      TH1
      000000D8H.6 SFRSYM    DATA     BIT       PH6
      000000A8H.2 SFRSYM    DATA     BIT       EX1
      000000D8H.7 SFRSYM    DATA     BIT       PH7
      000000D0H.0 SFRSYM    DATA     BIT       P
      000000B5H   SFRSYM    DATA     BYTE      SPI_CFG1
      000000BEH   SFRSYM    DATA     BYTE      SPI_STATE
      000000B6H   SFRSYM    DATA     BYTE      SPI_CFG2
      0000008AH   SFRSYM    DATA     BYTE      TL0
      000000DFH   SFRSYM    DATA     BYTE      UART0_STATE
      0000008BH   SFRSYM    DATA     BYTE      TL1
      000000DAH   SFRSYM    DATA     BYTE      UART1_STATE
      000000B8H.1 SFRSYM    DATA     BIT       PT0
      000000D0H.3 SFRSYM    DATA     BIT       RS0
      000000B8H.3 SFRSYM    DATA     BIT       PT1
      000000B1H   SFRSYM    DATA     BYTE      DP_CON
      000000D0H.4 SFRSYM    DATA     BIT       RS1
      00000088H.4 SFRSYM    DATA     BIT       TR0
      00000088H.6 SFRSYM    DATA     BIT       TR1
      000000B8H.0 SFRSYM    DATA     BIT       PX0
      000000D3H   SFRSYM    DATA     BYTE      SPROG_TIM
      00000098H.7 SFRSYM    DATA     BIT       SCI_TE
      00000098H.6 SFRSYM    DATA     BIT       SCI_TF
LX51 LINKER/LOCATER V4.66.100.0                                                       04/23/2024  19:14:21  PAGE 63


      000000B8H.2 SFRSYM    DATA     BIT       PX2
      00000097H   SFRSYM    DATA     BYTE      REG_DATA
      00000098H.5 SFRSYM    DATA     BIT       SCI_RI
      000000D4H   SFRSYM    DATA     BYTE      SPROG_RDATA
      00000096H   SFRSYM    DATA     BYTE      REG_ADDR
      000000F8H   SFRSYM    DATA     BYTE      DATAA
      00000083H   SFRSYM    DATA     BYTE      DPH
      00000080H   SFRSYM    DATA     BYTE      DATAB
      000000CBH   SFRSYM    DATA     BYTE      SNS_SCAN_CFG1
      00000090H   SFRSYM    DATA     BYTE      DATAC
      000000E8H.5 SFRSYM    DATA     BIT       IIC_RW
      000000CCH   SFRSYM    DATA     BYTE      SNS_SCAN_CFG2
      000000C5H   SFRSYM    DATA     BYTE      ADC_RDATAH
      000000DDH   SFRSYM    DATA     BYTE      UART0_CON1
      000000CDH   SFRSYM    DATA     BYTE      SNS_SCAN_CFG3
      000000B0H   SFRSYM    DATA     BYTE      DATAE
      00000082H   SFRSYM    DATA     BYTE      DPL
      00000098H.3 SFRSYM    DATA     BIT       SCI_RO
      000000DEH   SFRSYM    DATA     BYTE      UART0_CON2
      000000D7H   SFRSYM    DATA     BYTE      UART1_CON1
      000000C0H   SFRSYM    DATA     BYTE      DATAF
      000000D9H   SFRSYM    DATA     BYTE      UART1_CON2
      000000C8H   SFRSYM    DATA     BYTE      DATAG
      000000D8H   SFRSYM    DATA     BYTE      DATAH
      000000C6H   SFRSYM    DATA     BYTE      ADC_RDATAL
      00000092H   SFRSYM    DATA     BYTE      WDT_EN
      00000093H   SFRSYM    DATA     BYTE      TIMER2_CFG
      00000084H   SFRSYM    DATA     BYTE      TIMER3_CFG
      000000B4H   SFRSYM    DATA     BYTE      LED2_WIDTH
      000000E8H.1 SFRSYM    DATA     BIT       IIC_WCOL
      000000ADH   SFRSYM    DATA     BYTE      SYS_CLK_CFG
      000000C2H   SFRSYM    DATA     BYTE      SCI_INT_CLR
      000000D0H.5 SFRSYM    DATA     BIT       F0
      0000009CH   SFRSYM    DATA     BYTE      PWM0_H_H
      000000D0H.1 SFRSYM    DATA     BIT       F1
      000000A1H   SFRSYM    DATA     BYTE      PWM1_H_H
      000000A5H   SFRSYM    DATA     BYTE      PWM2_H_H
      000000AAH   SFRSYM    DATA     BYTE      PWM3_H_H
      0000009BH   SFRSYM    DATA     BYTE      PWM0_H_L
      0000009AH   SFRSYM    DATA     BYTE      PWM0_L_H
      000000D0H   SFRSYM    DATA     BYTE      PSW
      0000009FH   SFRSYM    DATA     BYTE      PWM1_H_L
      0000009EH   SFRSYM    DATA     BYTE      PWM1_L_H
      000000A4H   SFRSYM    DATA     BYTE      PWM2_H_L
      000000A3H   SFRSYM    DATA     BYTE      PWM2_L_H
      000000A9H   SFRSYM    DATA     BYTE      PWM3_H_L
      000000A7H   SFRSYM    DATA     BYTE      PWM3_L_H
      000000E8H.6 SFRSYM    DATA     BIT       IIC_STOP
      00000099H   SFRSYM    DATA     BYTE      PWM0_L_L

      ---         MODULE    ---      ---       BF7615BMXX_XXXX_CTK_IDLE
      000000BFH   SFRSYM    DATA     BYTE      SPI_SPID
      0000009DH   SFRSYM    DATA     BYTE      PWM1_L_L
      000000AEH   SFRSYM    DATA     BYTE      INT_PE_STAT
      000000A2H   SFRSYM    DATA     BYTE      PWM2_L_L
      000000C3H   SFRSYM    DATA     BYTE      ADC_SCAN_CFG
      000000A6H   SFRSYM    DATA     BYTE      PWM3_L_L
      000000A0H   SFRSYM    DATA     BYTE      P2_XH
      000000D0H.6 SFRSYM    DATA     BIT       AC
      000000BDH   SFRSYM    DATA     BYTE      SCI_D
      000000EAH   SFRSYM    DATA     BYTE      TRISA
      00000098H.1 SFRSYM    DATA     BIT       SCI_F
      000000E8H.2 SFRSYM    DATA     BIT       IIC_ACK
      000000A8H.7 SFRSYM    DATA     BIT       EA
      000000EBH   SFRSYM    DATA     BYTE      TRISB
LX51 LINKER/LOCATER V4.66.100.0                                                       04/23/2024  19:14:21  PAGE 64


      000000ECH   SFRSYM    DATA     BYTE      TRISC
      000000B9H   SFRSYM    DATA     BYTE      DP_CON1
      00000091H   SFRSYM    DATA     BYTE      WDT_CTRL
      00000098H.4 SFRSYM    DATA     BIT       SCI_I
      000000FBH   SFRSYM    DATA     BYTE      PCD_CFG
      000000EEH   SFRSYM    DATA     BYTE      TRISE
      000000D1H   SFRSYM    DATA     BYTE      SPROG_DATA
      000000B3H   SFRSYM    DATA     BYTE      SCAN_WIDTH
      000000EFH   SFRSYM    DATA     BYTE      TRISF
      000000F2H   SFRSYM    DATA     BYTE      TRISG
      000000ACH   SFRSYM    DATA     BYTE      CSD_RAWDATAH
      000000F7H   SFRSYM    DATA     BYTE      TRISH
      000000FCH   SFRSYM    DATA     BYTE      PCD_CMD
      000000A8H   SFRSYM    DATA     BYTE      IEN0
      00000098H.2 SFRSYM    DATA     BIT       SCI_N
      000000E6H   SFRSYM    DATA     BYTE      IEN1
      000000E7H   SFRSYM    DATA     BYTE      IEN2
      000000ABH   SFRSYM    DATA     BYTE      CSD_RAWDATAL
      00000098H.0 SFRSYM    DATA     BIT       SCI_P
      000000FEH   SFRSYM    DATA     BYTE      PCD_BIT_ER
      000000E9H   SFRSYM    DATA     BYTE      IICBUFFER
      000000E8H   SFRSYM    DATA     BYTE      IICSTAT
      000000B8H   SFRSYM    DATA     BYTE      IPL0
      000000F6H   SFRSYM    DATA     BYTE      IPL1
      000000AFH   SFRSYM    DATA     BYTE      SCAN_START
      000000F4H   SFRSYM    DATA     BYTE      IPL2
      0000008EH   SFRSYM    DATA     BYTE      SOFT_RST
      000000C4H   SFRSYM    DATA     BYTE      ADCCKC
      000000B2H   SFRSYM    DATA     BYTE      DP_MODE
      000000D0H.7 SFRSYM    DATA     BIT       CY
      000000D5H   SFRSYM    DATA     BYTE      INT_POBO_STAT
      000000E3H   SFRSYM    DATA     BYTE      IICADD
      000000DCH   SFRSYM    DATA     BYTE      UART0_BDL
      000000C1H   SFRSYM    DATA     BYTE      ADC_SPT
      000000D6H   SFRSYM    DATA     BYTE      UART1_BDL
      00000081H   SFRSYM    DATA     BYTE      SP
      000000D0H.2 SFRSYM    DATA     BIT       OV
      000000C7H   SFRSYM    DATA     BYTE      EXINT_STAT
      00000094H   SFRSYM    DATA     BYTE      TIMER2_SET_H
      000000E2H   SFRSYM    DATA     BYTE      UART0_BUF
      00000085H   SFRSYM    DATA     BYTE      TIMER3_SET_H
      000000DBH   SFRSYM    DATA     BYTE      UART1_BUF
      000000CAH   SFRSYM    DATA     BYTE      PULL_I_SEL
      000000F1H   SFRSYM    DATA     BYTE      IRCON1
      000000E1H   SFRSYM    DATA     BYTE      IRCON2
      00000095H   SFRSYM    DATA     BYTE      TIMER2_SET_L
      00000086H   SFRSYM    DATA     BYTE      TIMER3_SET_L
      00000087H   SFRSYM    DATA     BYTE      PCON
      000000CEH   SFRSYM    DATA     BYTE      SPROG_ADDR_H
      000000EDH   SFRSYM    DATA     BYTE      SCI_C1
      000000E4H   SFRSYM    DATA     BYTE      IICBUF
      000000BAH   SFRSYM    DATA     BYTE      SCI_C2
      00000089H   SFRSYM    DATA     BYTE      TMOD
      00000088H   SFRSYM    DATA     BYTE      TCON
      000000CFH   SFRSYM    DATA     BYTE      SPROG_ADDR_L
      000000BBH   SFRSYM    DATA     BYTE      SCI_C3
      000000E8H.0 SFRSYM    DATA     BIT       IIC_RECOV
      000000E5H   SFRSYM    DATA     BYTE      IICCON
      000000E8H.4 SFRSYM    DATA     BIT       IIC_AD
      000000FDH   SFRSYM    DATA     BYTE      PCD_CFG2
      000000FFH   SFRSYM    DATA     BYTE      PCD_CFG3
      000000E8H.3 SFRSYM    DATA     BIT       IIC_BF
      00000088H.1 SFRSYM    DATA     BIT       IE0
      00000088H.3 SFRSYM    DATA     BIT       IE1
      000000F8H.0 SFRSYM    DATA     BIT       PA0
LX51 LINKER/LOCATER V4.66.100.0                                                       04/23/2024  19:14:21  PAGE 65


      000000F0H   SFRSYM    DATA     BYTE      B
      00000080H.0 SFRSYM    DATA     BIT       PB0
      000000F8H.1 SFRSYM    DATA     BIT       PA1
      000000D2H   SFRSYM    DATA     BYTE      SPROG_CMD
      00000090H.0 SFRSYM    DATA     BIT       PC0
      00000080H.1 SFRSYM    DATA     BIT       PB1
      000000F8H.2 SFRSYM    DATA     BIT       PA2
      00000090H.1 SFRSYM    DATA     BIT       PC1
      00000080H.2 SFRSYM    DATA     BIT       PB2
      000000F8H.3 SFRSYM    DATA     BIT       PA3
      00000098H   SFRSYM    DATA     BYTE      SCI_S1
      000000B0H.0 SFRSYM    DATA     BIT       PE0
      00000090H.2 SFRSYM    DATA     BIT       PC2
      00000080H.3 SFRSYM    DATA     BIT       PB3
      000000BCH   SFRSYM    DATA     BYTE      SCI_S2
      000000E8H.7 SFRSYM    DATA     BIT       IIC_START
      000000C0H.0 SFRSYM    DATA     BIT       PF0
      000000B0H.1 SFRSYM    DATA     BIT       PE1
      00000090H.3 SFRSYM    DATA     BIT       PC3
      00000080H.4 SFRSYM    DATA     BIT       PB4
      000000C8H.0 SFRSYM    DATA     BIT       PG0
      000000C0H.1 SFRSYM    DATA     BIT       PF1
      000000B0H.2 SFRSYM    DATA     BIT       PE2
      00000090H.4 SFRSYM    DATA     BIT       PC4
      00000080H.5 SFRSYM    DATA     BIT       PB5
      000000F9H   SFRSYM    DATA     BYTE      PCD_BUF1
      000000E0H   SFRSYM    DATA     BYTE      ACC
      000000D8H.0 SFRSYM    DATA     BIT       PH0
      000000C8H.1 SFRSYM    DATA     BIT       PG1
      000000C0H.2 SFRSYM    DATA     BIT       PF2
      000000B0H.3 SFRSYM    DATA     BIT       PE3
      00000090H.5 SFRSYM    DATA     BIT       PC5
      00000080H.6 SFRSYM    DATA     BIT       PB6
      000000FAH   SFRSYM    DATA     BYTE      PCD_BUF2
      000000D8H.1 SFRSYM    DATA     BIT       PH1
      000000C8H.2 SFRSYM    DATA     BIT       PG2
      000000C0H.3 SFRSYM    DATA     BIT       PF3
      000000B0H.4 SFRSYM    DATA     BIT       PE4
      000000A8H.1 SFRSYM    DATA     BIT       ET0
      00000090H.6 SFRSYM    DATA     BIT       PC6
      00000080H.7 SFRSYM    DATA     BIT       PB7
      000000D8H.2 SFRSYM    DATA     BIT       PH2
      000000C8H.3 SFRSYM    DATA     BIT       PG3
      000000C0H.4 SFRSYM    DATA     BIT       PF4
      000000B0H.5 SFRSYM    DATA     BIT       PE5
      000000A8H.3 SFRSYM    DATA     BIT       ET1
      00000090H.7 SFRSYM    DATA     BIT       PC7
      00000088H.5 SFRSYM    DATA     BIT       TF0
      000000D8H.3 SFRSYM    DATA     BIT       PH3
      000000C0H.5 SFRSYM    DATA     BIT       PF5
      000000B0H.6 SFRSYM    DATA     BIT       PE6
      00000088H.7 SFRSYM    DATA     BIT       TF1
      000000C9H   SFRSYM    DATA     BYTE      CSD_START
      000000D8H.4 SFRSYM    DATA     BIT       PH4
      000000C0H.6 SFRSYM    DATA     BIT       PF6
      000000B0H.7 SFRSYM    DATA     BIT       PE7
      0000008CH   SFRSYM    DATA     BYTE      TH0
      000000D8H.5 SFRSYM    DATA     BIT       PH5
      000000C0H.7 SFRSYM    DATA     BIT       PF7
      000000A8H.0 SFRSYM    DATA     BIT       EX0
      0000008DH   SFRSYM    DATA     BYTE      TH1
      000000D8H.6 SFRSYM    DATA     BIT       PH6
      000000A8H.2 SFRSYM    DATA     BIT       EX1
      000000D8H.7 SFRSYM    DATA     BIT       PH7
      000000D0H.0 SFRSYM    DATA     BIT       P
LX51 LINKER/LOCATER V4.66.100.0                                                       04/23/2024  19:14:21  PAGE 66


      000000B5H   SFRSYM    DATA     BYTE      SPI_CFG1
      000000BEH   SFRSYM    DATA     BYTE      SPI_STATE
      000000B6H   SFRSYM    DATA     BYTE      SPI_CFG2
      0000008AH   SFRSYM    DATA     BYTE      TL0
      000000DFH   SFRSYM    DATA     BYTE      UART0_STATE
      0000008BH   SFRSYM    DATA     BYTE      TL1
      000000DAH   SFRSYM    DATA     BYTE      UART1_STATE
      000000B8H.1 SFRSYM    DATA     BIT       PT0
      000000D0H.3 SFRSYM    DATA     BIT       RS0
      000000B8H.3 SFRSYM    DATA     BIT       PT1
      000000B1H   SFRSYM    DATA     BYTE      DP_CON
      000000D0H.4 SFRSYM    DATA     BIT       RS1
      00000088H.4 SFRSYM    DATA     BIT       TR0
      00000088H.6 SFRSYM    DATA     BIT       TR1
      000000B8H.0 SFRSYM    DATA     BIT       PX0
      000000D3H   SFRSYM    DATA     BYTE      SPROG_TIM
      00000098H.7 SFRSYM    DATA     BIT       SCI_TE
      00000098H.6 SFRSYM    DATA     BIT       SCI_TF
      000000B8H.2 SFRSYM    DATA     BIT       PX2
      00000097H   SFRSYM    DATA     BYTE      REG_DATA
      00000098H.5 SFRSYM    DATA     BIT       SCI_RI
      000000D4H   SFRSYM    DATA     BYTE      SPROG_RDATA
      00000096H   SFRSYM    DATA     BYTE      REG_ADDR
      000000F8H   SFRSYM    DATA     BYTE      DATAA
      00000083H   SFRSYM    DATA     BYTE      DPH
      00000080H   SFRSYM    DATA     BYTE      DATAB
      000000CBH   SFRSYM    DATA     BYTE      SNS_SCAN_CFG1
      00000090H   SFRSYM    DATA     BYTE      DATAC
      000000E8H.5 SFRSYM    DATA     BIT       IIC_RW
      000000CCH   SFRSYM    DATA     BYTE      SNS_SCAN_CFG2
      000000C5H   SFRSYM    DATA     BYTE      ADC_RDATAH
      000000DDH   SFRSYM    DATA     BYTE      UART0_CON1
      000000CDH   SFRSYM    DATA     BYTE      SNS_SCAN_CFG3
      000000B0H   SFRSYM    DATA     BYTE      DATAE
      00000082H   SFRSYM    DATA     BYTE      DPL
      00000098H.3 SFRSYM    DATA     BIT       SCI_RO
      000000DEH   SFRSYM    DATA     BYTE      UART0_CON2
      000000D7H   SFRSYM    DATA     BYTE      UART1_CON1
      000000C0H   SFRSYM    DATA     BYTE      DATAF
      000000D9H   SFRSYM    DATA     BYTE      UART1_CON2
      000000C8H   SFRSYM    DATA     BYTE      DATAG
      000000D8H   SFRSYM    DATA     BYTE      DATAH
      000000C6H   SFRSYM    DATA     BYTE      ADC_RDATAL
      00000092H   SFRSYM    DATA     BYTE      WDT_EN
      00000093H   SFRSYM    DATA     BYTE      TIMER2_CFG
      00000084H   SFRSYM    DATA     BYTE      TIMER3_CFG
      000000B4H   SFRSYM    DATA     BYTE      LED2_WIDTH
      000000E8H.1 SFRSYM    DATA     BIT       IIC_WCOL
      000000ADH   SFRSYM    DATA     BYTE      SYS_CLK_CFG
      000000C2H   SFRSYM    DATA     BYTE      SCI_INT_CLR
      000000D0H.5 SFRSYM    DATA     BIT       F0
      0000009CH   SFRSYM    DATA     BYTE      PWM0_H_H
      000000D0H.1 SFRSYM    DATA     BIT       F1
      000000A1H   SFRSYM    DATA     BYTE      PWM1_H_H
      000000A5H   SFRSYM    DATA     BYTE      PWM2_H_H
      000000AAH   SFRSYM    DATA     BYTE      PWM3_H_H
      0000009BH   SFRSYM    DATA     BYTE      PWM0_H_L
      0000009AH   SFRSYM    DATA     BYTE      PWM0_L_H
      000000D0H   SFRSYM    DATA     BYTE      PSW
      0000009FH   SFRSYM    DATA     BYTE      PWM1_H_L
      0000009EH   SFRSYM    DATA     BYTE      PWM1_L_H
      000000A4H   SFRSYM    DATA     BYTE      PWM2_H_L
      000000A3H   SFRSYM    DATA     BYTE      PWM2_L_H
      000000A9H   SFRSYM    DATA     BYTE      PWM3_H_L
      000000A7H   SFRSYM    DATA     BYTE      PWM3_L_H
LX51 LINKER/LOCATER V4.66.100.0                                                       04/23/2024  19:14:21  PAGE 67


      000000E8H.6 SFRSYM    DATA     BIT       IIC_STOP
      00000099H   SFRSYM    DATA     BYTE      PWM0_L_L

      ---         MODULE    ---      ---       VIEW
      02000160H   PUBLIC    XDATA    ---       g_View
      02000157H   PUBLIC    XDATA    ---       g_sysTimeCnt
      0200014FH   PUBLIC    XDATA    ---       g_config
      0200013DH   PUBLIC    XDATA    ---       g_SysHardware
      02000138H   PUBLIC    XDATA    ---       g_DisplayLed
      02000136H   PUBLIC    XDATA    ---       pSM16106
      000000BFH   SFRSYM    DATA     BYTE      SPI_SPID
      0000009DH   SFRSYM    DATA     BYTE      PWM1_L_L
      000000AEH   SFRSYM    DATA     BYTE      INT_PE_STAT
      000000A2H   SFRSYM    DATA     BYTE      PWM2_L_L
      000000C3H   SFRSYM    DATA     BYTE      ADC_SCAN_CFG
      000000A6H   SFRSYM    DATA     BYTE      PWM3_L_L
      000000A0H   SFRSYM    DATA     BYTE      P2_XH
      000000D0H.6 SFRSYM    DATA     BIT       AC
      000000BDH   SFRSYM    DATA     BYTE      SCI_D
      000000EAH   SFRSYM    DATA     BYTE      TRISA
      00000098H.1 SFRSYM    DATA     BIT       SCI_F
      000000E8H.2 SFRSYM    DATA     BIT       IIC_ACK
      000000A8H.7 SFRSYM    DATA     BIT       EA
      000000EBH   SFRSYM    DATA     BYTE      TRISB
      000000ECH   SFRSYM    DATA     BYTE      TRISC
      000000B9H   SFRSYM    DATA     BYTE      DP_CON1
      00000091H   SFRSYM    DATA     BYTE      WDT_CTRL
      00000098H.4 SFRSYM    DATA     BIT       SCI_I
      000000FBH   SFRSYM    DATA     BYTE      PCD_CFG
      000000EEH   SFRSYM    DATA     BYTE      TRISE
      000000D1H   SFRSYM    DATA     BYTE      SPROG_DATA
      000000B3H   SFRSYM    DATA     BYTE      SCAN_WIDTH
      000000EFH   SFRSYM    DATA     BYTE      TRISF
      000000F2H   SFRSYM    DATA     BYTE      TRISG
      000000ACH   SFRSYM    DATA     BYTE      CSD_RAWDATAH
      000000F7H   SFRSYM    DATA     BYTE      TRISH
      000000FCH   SFRSYM    DATA     BYTE      PCD_CMD
      000000A8H   SFRSYM    DATA     BYTE      IEN0
      00000098H.2 SFRSYM    DATA     BIT       SCI_N
      000000E6H   SFRSYM    DATA     BYTE      IEN1
      000000E7H   SFRSYM    DATA     BYTE      IEN2
      000000ABH   SFRSYM    DATA     BYTE      CSD_RAWDATAL
      00000098H.0 SFRSYM    DATA     BIT       SCI_P
      000000FEH   SFRSYM    DATA     BYTE      PCD_BIT_ER
      000000E9H   SFRSYM    DATA     BYTE      IICBUFFER
      000000E8H   SFRSYM    DATA     BYTE      IICSTAT
      000000B8H   SFRSYM    DATA     BYTE      IPL0
      000000F6H   SFRSYM    DATA     BYTE      IPL1
      000000AFH   SFRSYM    DATA     BYTE      SCAN_START
      000000F4H   SFRSYM    DATA     BYTE      IPL2
      0000008EH   SFRSYM    DATA     BYTE      SOFT_RST
      000000C4H   SFRSYM    DATA     BYTE      ADCCKC
      000000B2H   SFRSYM    DATA     BYTE      DP_MODE
      000000D0H.7 SFRSYM    DATA     BIT       CY
      000000D5H   SFRSYM    DATA     BYTE      INT_POBO_STAT
      000000E3H   SFRSYM    DATA     BYTE      IICADD
      000000DCH   SFRSYM    DATA     BYTE      UART0_BDL
      000000C1H   SFRSYM    DATA     BYTE      ADC_SPT
      000000D6H   SFRSYM    DATA     BYTE      UART1_BDL
      00000081H   SFRSYM    DATA     BYTE      SP
      000000D0H.2 SFRSYM    DATA     BIT       OV
      000000C7H   SFRSYM    DATA     BYTE      EXINT_STAT
      00000094H   SFRSYM    DATA     BYTE      TIMER2_SET_H
      000000E2H   SFRSYM    DATA     BYTE      UART0_BUF
      00000085H   SFRSYM    DATA     BYTE      TIMER3_SET_H
LX51 LINKER/LOCATER V4.66.100.0                                                       04/23/2024  19:14:21  PAGE 68


      000000DBH   SFRSYM    DATA     BYTE      UART1_BUF
      000000CAH   SFRSYM    DATA     BYTE      PULL_I_SEL
      000000F1H   SFRSYM    DATA     BYTE      IRCON1
      000000E1H   SFRSYM    DATA     BYTE      IRCON2
      00000095H   SFRSYM    DATA     BYTE      TIMER2_SET_L
      00000086H   SFRSYM    DATA     BYTE      TIMER3_SET_L
      00000087H   SFRSYM    DATA     BYTE      PCON
      000000CEH   SFRSYM    DATA     BYTE      SPROG_ADDR_H
      000000EDH   SFRSYM    DATA     BYTE      SCI_C1
      000000E4H   SFRSYM    DATA     BYTE      IICBUF
      000000BAH   SFRSYM    DATA     BYTE      SCI_C2
      00000089H   SFRSYM    DATA     BYTE      TMOD
      00000088H   SFRSYM    DATA     BYTE      TCON
      000000CFH   SFRSYM    DATA     BYTE      SPROG_ADDR_L
      000000BBH   SFRSYM    DATA     BYTE      SCI_C3
      000000E8H.0 SFRSYM    DATA     BIT       IIC_RECOV
      000000E5H   SFRSYM    DATA     BYTE      IICCON
      000000E8H.4 SFRSYM    DATA     BIT       IIC_AD
      000000FDH   SFRSYM    DATA     BYTE      PCD_CFG2
      000000FFH   SFRSYM    DATA     BYTE      PCD_CFG3
      000000E8H.3 SFRSYM    DATA     BIT       IIC_BF
      00000088H.1 SFRSYM    DATA     BIT       IE0
      00000088H.3 SFRSYM    DATA     BIT       IE1
      000000F8H.0 SFRSYM    DATA     BIT       PA0
      000000F0H   SFRSYM    DATA     BYTE      B
      00000080H.0 SFRSYM    DATA     BIT       PB0
      000000F8H.1 SFRSYM    DATA     BIT       PA1
      000000D2H   SFRSYM    DATA     BYTE      SPROG_CMD
      00000090H.0 SFRSYM    DATA     BIT       PC0
      00000080H.1 SFRSYM    DATA     BIT       PB1
      000000F8H.2 SFRSYM    DATA     BIT       PA2
      00000090H.1 SFRSYM    DATA     BIT       PC1
      00000080H.2 SFRSYM    DATA     BIT       PB2
      000000F8H.3 SFRSYM    DATA     BIT       PA3
      00000098H   SFRSYM    DATA     BYTE      SCI_S1
      000000B0H.0 SFRSYM    DATA     BIT       PE0
      00000090H.2 SFRSYM    DATA     BIT       PC2
      00000080H.3 SFRSYM    DATA     BIT       PB3
      000000BCH   SFRSYM    DATA     BYTE      SCI_S2
      000000E8H.7 SFRSYM    DATA     BIT       IIC_START
      000000C0H.0 SFRSYM    DATA     BIT       PF0
      000000B0H.1 SFRSYM    DATA     BIT       PE1
      00000090H.3 SFRSYM    DATA     BIT       PC3
      00000080H.4 SFRSYM    DATA     BIT       PB4
      000000C8H.0 SFRSYM    DATA     BIT       PG0
      000000C0H.1 SFRSYM    DATA     BIT       PF1
      000000B0H.2 SFRSYM    DATA     BIT       PE2
      00000090H.4 SFRSYM    DATA     BIT       PC4
      00000080H.5 SFRSYM    DATA     BIT       PB5
      000000F9H   SFRSYM    DATA     BYTE      PCD_BUF1
      000000E0H   SFRSYM    DATA     BYTE      ACC
      000000D8H.0 SFRSYM    DATA     BIT       PH0
      000000C8H.1 SFRSYM    DATA     BIT       PG1
      000000C0H.2 SFRSYM    DATA     BIT       PF2
      000000B0H.3 SFRSYM    DATA     BIT       PE3
      00000090H.5 SFRSYM    DATA     BIT       PC5
      00000080H.6 SFRSYM    DATA     BIT       PB6
      000000FAH   SFRSYM    DATA     BYTE      PCD_BUF2
      000000D8H.1 SFRSYM    DATA     BIT       PH1
      000000C8H.2 SFRSYM    DATA     BIT       PG2
      000000C0H.3 SFRSYM    DATA     BIT       PF3
      000000B0H.4 SFRSYM    DATA     BIT       PE4
      000000A8H.1 SFRSYM    DATA     BIT       ET0
      00000090H.6 SFRSYM    DATA     BIT       PC6
      00000080H.7 SFRSYM    DATA     BIT       PB7
LX51 LINKER/LOCATER V4.66.100.0                                                       04/23/2024  19:14:21  PAGE 69


      000000D8H.2 SFRSYM    DATA     BIT       PH2
      000000C8H.3 SFRSYM    DATA     BIT       PG3
      000000C0H.4 SFRSYM    DATA     BIT       PF4
      000000B0H.5 SFRSYM    DATA     BIT       PE5
      000000A8H.3 SFRSYM    DATA     BIT       ET1
      00000090H.7 SFRSYM    DATA     BIT       PC7
      00000088H.5 SFRSYM    DATA     BIT       TF0
      000000D8H.3 SFRSYM    DATA     BIT       PH3
      000000C0H.5 SFRSYM    DATA     BIT       PF5
      000000B0H.6 SFRSYM    DATA     BIT       PE6
      00000088H.7 SFRSYM    DATA     BIT       TF1
      000000C9H   SFRSYM    DATA     BYTE      CSD_START
      000000D8H.4 SFRSYM    DATA     BIT       PH4
      000000C0H.6 SFRSYM    DATA     BIT       PF6
      000000B0H.7 SFRSYM    DATA     BIT       PE7
      0000008CH   SFRSYM    DATA     BYTE      TH0
      000000D8H.5 SFRSYM    DATA     BIT       PH5
      000000C0H.7 SFRSYM    DATA     BIT       PF7
      000000A8H.0 SFRSYM    DATA     BIT       EX0
      0000008DH   SFRSYM    DATA     BYTE      TH1
      000000D8H.6 SFRSYM    DATA     BIT       PH6
      000000A8H.2 SFRSYM    DATA     BIT       EX1
      000000D8H.7 SFRSYM    DATA     BIT       PH7
      000000D0H.0 SFRSYM    DATA     BIT       P
      000000B5H   SFRSYM    DATA     BYTE      SPI_CFG1
      000000BEH   SFRSYM    DATA     BYTE      SPI_STATE
      000000B6H   SFRSYM    DATA     BYTE      SPI_CFG2
      0000008AH   SFRSYM    DATA     BYTE      TL0
      000000DFH   SFRSYM    DATA     BYTE      UART0_STATE
      0000008BH   SFRSYM    DATA     BYTE      TL1
      000000DAH   SFRSYM    DATA     BYTE      UART1_STATE
      000000B8H.1 SFRSYM    DATA     BIT       PT0
      000000D0H.3 SFRSYM    DATA     BIT       RS0
      000000B8H.3 SFRSYM    DATA     BIT       PT1
      000000B1H   SFRSYM    DATA     BYTE      DP_CON
      000000D0H.4 SFRSYM    DATA     BIT       RS1
      00000088H.4 SFRSYM    DATA     BIT       TR0
      00000088H.6 SFRSYM    DATA     BIT       TR1
      000000B8H.0 SFRSYM    DATA     BIT       PX0
      000000D3H   SFRSYM    DATA     BYTE      SPROG_TIM
      00000098H.7 SFRSYM    DATA     BIT       SCI_TE
      00000098H.6 SFRSYM    DATA     BIT       SCI_TF
      000000B8H.2 SFRSYM    DATA     BIT       PX2
      00000097H   SFRSYM    DATA     BYTE      REG_DATA
      00000098H.5 SFRSYM    DATA     BIT       SCI_RI
      000000D4H   SFRSYM    DATA     BYTE      SPROG_RDATA
      00000096H   SFRSYM    DATA     BYTE      REG_ADDR
      000000F8H   SFRSYM    DATA     BYTE      DATAA
      00000083H   SFRSYM    DATA     BYTE      DPH
      00000080H   SFRSYM    DATA     BYTE      DATAB
      000000CBH   SFRSYM    DATA     BYTE      SNS_SCAN_CFG1
      00000090H   SFRSYM    DATA     BYTE      DATAC
      000000E8H.5 SFRSYM    DATA     BIT       IIC_RW
      000000CCH   SFRSYM    DATA     BYTE      SNS_SCAN_CFG2
      000000C5H   SFRSYM    DATA     BYTE      ADC_RDATAH
      000000DDH   SFRSYM    DATA     BYTE      UART0_CON1
      000000CDH   SFRSYM    DATA     BYTE      SNS_SCAN_CFG3
      000000B0H   SFRSYM    DATA     BYTE      DATAE
      00000082H   SFRSYM    DATA     BYTE      DPL
      00000098H.3 SFRSYM    DATA     BIT       SCI_RO
      000000DEH   SFRSYM    DATA     BYTE      UART0_CON2
      000000D7H   SFRSYM    DATA     BYTE      UART1_CON1
      000000C0H   SFRSYM    DATA     BYTE      DATAF
      000000D9H   SFRSYM    DATA     BYTE      UART1_CON2
      000000C8H   SFRSYM    DATA     BYTE      DATAG
LX51 LINKER/LOCATER V4.66.100.0                                                       04/23/2024  19:14:21  PAGE 70


      000000D8H   SFRSYM    DATA     BYTE      DATAH
      000000C6H   SFRSYM    DATA     BYTE      ADC_RDATAL
      00000092H   SFRSYM    DATA     BYTE      WDT_EN
      00000093H   SFRSYM    DATA     BYTE      TIMER2_CFG
      00000084H   SFRSYM    DATA     BYTE      TIMER3_CFG
      000000B4H   SFRSYM    DATA     BYTE      LED2_WIDTH
      000000E8H.1 SFRSYM    DATA     BIT       IIC_WCOL
      000000ADH   SFRSYM    DATA     BYTE      SYS_CLK_CFG
      000000C2H   SFRSYM    DATA     BYTE      SCI_INT_CLR
      000000D0H.5 SFRSYM    DATA     BIT       F0
      0000009CH   SFRSYM    DATA     BYTE      PWM0_H_H
      000000D0H.1 SFRSYM    DATA     BIT       F1
      000000A1H   SFRSYM    DATA     BYTE      PWM1_H_H
      000000A5H   SFRSYM    DATA     BYTE      PWM2_H_H
      000000AAH   SFRSYM    DATA     BYTE      PWM3_H_H
      0000009BH   SFRSYM    DATA     BYTE      PWM0_H_L
      0000009AH   SFRSYM    DATA     BYTE      PWM0_L_H
      000000D0H   SFRSYM    DATA     BYTE      PSW
      0000009FH   SFRSYM    DATA     BYTE      PWM1_H_L
      0000009EH   SFRSYM    DATA     BYTE      PWM1_L_H
      000000A4H   SFRSYM    DATA     BYTE      PWM2_H_L
      000000A3H   SFRSYM    DATA     BYTE      PWM2_L_H
      000000A9H   SFRSYM    DATA     BYTE      PWM3_H_L
      000000A7H   SFRSYM    DATA     BYTE      PWM3_L_H
      000000E8H.6 SFRSYM    DATA     BIT       IIC_STOP
      00000099H   SFRSYM    DATA     BYTE      PWM0_L_L

      ---         MODULE    ---      ---       CMD
      01000005H   PUBLIC    CODE     ---       CmdSend1sLoop
      0100520AH   PUBLIC    CODE     ---       CmdInit
      000000BFH   SFRSYM    DATA     BYTE      SPI_SPID
      0000009DH   SFRSYM    DATA     BYTE      PWM1_L_L
      000000AEH   SFRSYM    DATA     BYTE      INT_PE_STAT
      000000A2H   SFRSYM    DATA     BYTE      PWM2_L_L
      000000C3H   SFRSYM    DATA     BYTE      ADC_SCAN_CFG
      000000A6H   SFRSYM    DATA     BYTE      PWM3_L_L
      000000A0H   SFRSYM    DATA     BYTE      P2_XH
      000000D0H.6 SFRSYM    DATA     BIT       AC
      000000BDH   SFRSYM    DATA     BYTE      SCI_D
      000000EAH   SFRSYM    DATA     BYTE      TRISA
      00000098H.1 SFRSYM    DATA     BIT       SCI_F
      000000E8H.2 SFRSYM    DATA     BIT       IIC_ACK
      000000A8H.7 SFRSYM    DATA     BIT       EA
      000000EBH   SFRSYM    DATA     BYTE      TRISB
      000000ECH   SFRSYM    DATA     BYTE      TRISC
      000000B9H   SFRSYM    DATA     BYTE      DP_CON1
      00000091H   SFRSYM    DATA     BYTE      WDT_CTRL
      00000098H.4 SFRSYM    DATA     BIT       SCI_I
      000000FBH   SFRSYM    DATA     BYTE      PCD_CFG
      000000EEH   SFRSYM    DATA     BYTE      TRISE
      000000D1H   SFRSYM    DATA     BYTE      SPROG_DATA
      000000B3H   SFRSYM    DATA     BYTE      SCAN_WIDTH
      000000EFH   SFRSYM    DATA     BYTE      TRISF
      000000F2H   SFRSYM    DATA     BYTE      TRISG
      000000ACH   SFRSYM    DATA     BYTE      CSD_RAWDATAH
      000000F7H   SFRSYM    DATA     BYTE      TRISH
      000000FCH   SFRSYM    DATA     BYTE      PCD_CMD
      000000A8H   SFRSYM    DATA     BYTE      IEN0
      00000098H.2 SFRSYM    DATA     BIT       SCI_N
      000000E6H   SFRSYM    DATA     BYTE      IEN1
      000000E7H   SFRSYM    DATA     BYTE      IEN2
      000000ABH   SFRSYM    DATA     BYTE      CSD_RAWDATAL
      00000098H.0 SFRSYM    DATA     BIT       SCI_P
      000000FEH   SFRSYM    DATA     BYTE      PCD_BIT_ER
      000000E9H   SFRSYM    DATA     BYTE      IICBUFFER
LX51 LINKER/LOCATER V4.66.100.0                                                       04/23/2024  19:14:21  PAGE 71


      000000E8H   SFRSYM    DATA     BYTE      IICSTAT
      000000B8H   SFRSYM    DATA     BYTE      IPL0
      000000F6H   SFRSYM    DATA     BYTE      IPL1
      000000AFH   SFRSYM    DATA     BYTE      SCAN_START
      000000F4H   SFRSYM    DATA     BYTE      IPL2
      0000008EH   SFRSYM    DATA     BYTE      SOFT_RST
      000000C4H   SFRSYM    DATA     BYTE      ADCCKC
      000000B2H   SFRSYM    DATA     BYTE      DP_MODE
      000000D0H.7 SFRSYM    DATA     BIT       CY
      000000D5H   SFRSYM    DATA     BYTE      INT_POBO_STAT
      000000E3H   SFRSYM    DATA     BYTE      IICADD
      000000DCH   SFRSYM    DATA     BYTE      UART0_BDL
      000000C1H   SFRSYM    DATA     BYTE      ADC_SPT
      000000D6H   SFRSYM    DATA     BYTE      UART1_BDL
      00000081H   SFRSYM    DATA     BYTE      SP
      000000D0H.2 SFRSYM    DATA     BIT       OV
      000000C7H   SFRSYM    DATA     BYTE      EXINT_STAT
      00000094H   SFRSYM    DATA     BYTE      TIMER2_SET_H
      000000E2H   SFRSYM    DATA     BYTE      UART0_BUF
      00000085H   SFRSYM    DATA     BYTE      TIMER3_SET_H
      000000DBH   SFRSYM    DATA     BYTE      UART1_BUF
      000000CAH   SFRSYM    DATA     BYTE      PULL_I_SEL
      000000F1H   SFRSYM    DATA     BYTE      IRCON1
      000000E1H   SFRSYM    DATA     BYTE      IRCON2
      00000095H   SFRSYM    DATA     BYTE      TIMER2_SET_L
      00000086H   SFRSYM    DATA     BYTE      TIMER3_SET_L
      00000087H   SFRSYM    DATA     BYTE      PCON
      000000CEH   SFRSYM    DATA     BYTE      SPROG_ADDR_H
      000000EDH   SFRSYM    DATA     BYTE      SCI_C1
      000000E4H   SFRSYM    DATA     BYTE      IICBUF
      000000BAH   SFRSYM    DATA     BYTE      SCI_C2
      00000089H   SFRSYM    DATA     BYTE      TMOD
      00000088H   SFRSYM    DATA     BYTE      TCON
      000000CFH   SFRSYM    DATA     BYTE      SPROG_ADDR_L
      000000BBH   SFRSYM    DATA     BYTE      SCI_C3
      000000E8H.0 SFRSYM    DATA     BIT       IIC_RECOV
      000000E5H   SFRSYM    DATA     BYTE      IICCON
      000000E8H.4 SFRSYM    DATA     BIT       IIC_AD
      000000FDH   SFRSYM    DATA     BYTE      PCD_CFG2
      000000FFH   SFRSYM    DATA     BYTE      PCD_CFG3
      000000E8H.3 SFRSYM    DATA     BIT       IIC_BF
      00000088H.1 SFRSYM    DATA     BIT       IE0
      00000088H.3 SFRSYM    DATA     BIT       IE1
      000000F8H.0 SFRSYM    DATA     BIT       PA0
      000000F0H   SFRSYM    DATA     BYTE      B
      00000080H.0 SFRSYM    DATA     BIT       PB0
      000000F8H.1 SFRSYM    DATA     BIT       PA1
      000000D2H   SFRSYM    DATA     BYTE      SPROG_CMD
      00000090H.0 SFRSYM    DATA     BIT       PC0
      00000080H.1 SFRSYM    DATA     BIT       PB1
      000000F8H.2 SFRSYM    DATA     BIT       PA2
      00000090H.1 SFRSYM    DATA     BIT       PC1
      00000080H.2 SFRSYM    DATA     BIT       PB2
      000000F8H.3 SFRSYM    DATA     BIT       PA3
      00000098H   SFRSYM    DATA     BYTE      SCI_S1
      000000B0H.0 SFRSYM    DATA     BIT       PE0
      00000090H.2 SFRSYM    DATA     BIT       PC2
      00000080H.3 SFRSYM    DATA     BIT       PB3
      000000BCH   SFRSYM    DATA     BYTE      SCI_S2
      000000E8H.7 SFRSYM    DATA     BIT       IIC_START
      000000C0H.0 SFRSYM    DATA     BIT       PF0
      000000B0H.1 SFRSYM    DATA     BIT       PE1
      00000090H.3 SFRSYM    DATA     BIT       PC3
      00000080H.4 SFRSYM    DATA     BIT       PB4
      000000C8H.0 SFRSYM    DATA     BIT       PG0
LX51 LINKER/LOCATER V4.66.100.0                                                       04/23/2024  19:14:21  PAGE 72


      000000C0H.1 SFRSYM    DATA     BIT       PF1
      000000B0H.2 SFRSYM    DATA     BIT       PE2
      00000090H.4 SFRSYM    DATA     BIT       PC4
      00000080H.5 SFRSYM    DATA     BIT       PB5
      000000F9H   SFRSYM    DATA     BYTE      PCD_BUF1
      000000E0H   SFRSYM    DATA     BYTE      ACC
      000000D8H.0 SFRSYM    DATA     BIT       PH0
      000000C8H.1 SFRSYM    DATA     BIT       PG1
      000000C0H.2 SFRSYM    DATA     BIT       PF2
      000000B0H.3 SFRSYM    DATA     BIT       PE3
      00000090H.5 SFRSYM    DATA     BIT       PC5
      00000080H.6 SFRSYM    DATA     BIT       PB6
      000000FAH   SFRSYM    DATA     BYTE      PCD_BUF2
      000000D8H.1 SFRSYM    DATA     BIT       PH1
      000000C8H.2 SFRSYM    DATA     BIT       PG2
      000000C0H.3 SFRSYM    DATA     BIT       PF3
      000000B0H.4 SFRSYM    DATA     BIT       PE4
      000000A8H.1 SFRSYM    DATA     BIT       ET0
      00000090H.6 SFRSYM    DATA     BIT       PC6
      00000080H.7 SFRSYM    DATA     BIT       PB7
      000000D8H.2 SFRSYM    DATA     BIT       PH2
      000000C8H.3 SFRSYM    DATA     BIT       PG3
      000000C0H.4 SFRSYM    DATA     BIT       PF4
      000000B0H.5 SFRSYM    DATA     BIT       PE5
      000000A8H.3 SFRSYM    DATA     BIT       ET1
      00000090H.7 SFRSYM    DATA     BIT       PC7
      00000088H.5 SFRSYM    DATA     BIT       TF0
      000000D8H.3 SFRSYM    DATA     BIT       PH3
      000000C0H.5 SFRSYM    DATA     BIT       PF5
      000000B0H.6 SFRSYM    DATA     BIT       PE6
      00000088H.7 SFRSYM    DATA     BIT       TF1
      000000C9H   SFRSYM    DATA     BYTE      CSD_START
      000000D8H.4 SFRSYM    DATA     BIT       PH4
      000000C0H.6 SFRSYM    DATA     BIT       PF6
      000000B0H.7 SFRSYM    DATA     BIT       PE7
      0000008CH   SFRSYM    DATA     BYTE      TH0
      000000D8H.5 SFRSYM    DATA     BIT       PH5
      000000C0H.7 SFRSYM    DATA     BIT       PF7
      000000A8H.0 SFRSYM    DATA     BIT       EX0
      0000008DH   SFRSYM    DATA     BYTE      TH1
      000000D8H.6 SFRSYM    DATA     BIT       PH6
      000000A8H.2 SFRSYM    DATA     BIT       EX1
      000000D8H.7 SFRSYM    DATA     BIT       PH7
      000000D0H.0 SFRSYM    DATA     BIT       P
      000000B5H   SFRSYM    DATA     BYTE      SPI_CFG1
      000000BEH   SFRSYM    DATA     BYTE      SPI_STATE
      000000B6H   SFRSYM    DATA     BYTE      SPI_CFG2
      0000008AH   SFRSYM    DATA     BYTE      TL0
      000000DFH   SFRSYM    DATA     BYTE      UART0_STATE
      0000008BH   SFRSYM    DATA     BYTE      TL1
      000000DAH   SFRSYM    DATA     BYTE      UART1_STATE
      000000B8H.1 SFRSYM    DATA     BIT       PT0
      000000D0H.3 SFRSYM    DATA     BIT       RS0
      000000B8H.3 SFRSYM    DATA     BIT       PT1
      000000B1H   SFRSYM    DATA     BYTE      DP_CON
      000000D0H.4 SFRSYM    DATA     BIT       RS1
      00000088H.4 SFRSYM    DATA     BIT       TR0
      00000088H.6 SFRSYM    DATA     BIT       TR1
      000000B8H.0 SFRSYM    DATA     BIT       PX0
      000000D3H   SFRSYM    DATA     BYTE      SPROG_TIM
      00000098H.7 SFRSYM    DATA     BIT       SCI_TE
      00000098H.6 SFRSYM    DATA     BIT       SCI_TF
      000000B8H.2 SFRSYM    DATA     BIT       PX2
      00000097H   SFRSYM    DATA     BYTE      REG_DATA
      00000098H.5 SFRSYM    DATA     BIT       SCI_RI
LX51 LINKER/LOCATER V4.66.100.0                                                       04/23/2024  19:14:21  PAGE 73


      000000D4H   SFRSYM    DATA     BYTE      SPROG_RDATA
      00000096H   SFRSYM    DATA     BYTE      REG_ADDR
      000000F8H   SFRSYM    DATA     BYTE      DATAA
      00000083H   SFRSYM    DATA     BYTE      DPH
      00000080H   SFRSYM    DATA     BYTE      DATAB
      000000CBH   SFRSYM    DATA     BYTE      SNS_SCAN_CFG1
      00000090H   SFRSYM    DATA     BYTE      DATAC
      000000E8H.5 SFRSYM    DATA     BIT       IIC_RW
      000000CCH   SFRSYM    DATA     BYTE      SNS_SCAN_CFG2
      000000C5H   SFRSYM    DATA     BYTE      ADC_RDATAH
      000000DDH   SFRSYM    DATA     BYTE      UART0_CON1
      000000CDH   SFRSYM    DATA     BYTE      SNS_SCAN_CFG3
      000000B0H   SFRSYM    DATA     BYTE      DATAE
      00000082H   SFRSYM    DATA     BYTE      DPL
      00000098H.3 SFRSYM    DATA     BIT       SCI_RO
      000000DEH   SFRSYM    DATA     BYTE      UART0_CON2
      000000D7H   SFRSYM    DATA     BYTE      UART1_CON1
      000000C0H   SFRSYM    DATA     BYTE      DATAF
      000000D9H   SFRSYM    DATA     BYTE      UART1_CON2
      000000C8H   SFRSYM    DATA     BYTE      DATAG
      000000D8H   SFRSYM    DATA     BYTE      DATAH
      000000C6H   SFRSYM    DATA     BYTE      ADC_RDATAL
      00000092H   SFRSYM    DATA     BYTE      WDT_EN
      00000093H   SFRSYM    DATA     BYTE      TIMER2_CFG
      00000084H   SFRSYM    DATA     BYTE      TIMER3_CFG
      000000B4H   SFRSYM    DATA     BYTE      LED2_WIDTH
      000000E8H.1 SFRSYM    DATA     BIT       IIC_WCOL
      000000ADH   SFRSYM    DATA     BYTE      SYS_CLK_CFG
      000000C2H   SFRSYM    DATA     BYTE      SCI_INT_CLR
      000000D0H.5 SFRSYM    DATA     BIT       F0
      0000009CH   SFRSYM    DATA     BYTE      PWM0_H_H
      000000D0H.1 SFRSYM    DATA     BIT       F1
      000000A1H   SFRSYM    DATA     BYTE      PWM1_H_H
      000000A5H   SFRSYM    DATA     BYTE      PWM2_H_H
      000000AAH   SFRSYM    DATA     BYTE      PWM3_H_H
      0000009BH   SFRSYM    DATA     BYTE      PWM0_H_L
      0000009AH   SFRSYM    DATA     BYTE      PWM0_L_H
      000000D0H   SFRSYM    DATA     BYTE      PSW
      0000009FH   SFRSYM    DATA     BYTE      PWM1_H_L
      0000009EH   SFRSYM    DATA     BYTE      PWM1_L_H
      000000A4H   SFRSYM    DATA     BYTE      PWM2_H_L
      000000A3H   SFRSYM    DATA     BYTE      PWM2_L_H
      000000A9H   SFRSYM    DATA     BYTE      PWM3_H_L
      000000A7H   SFRSYM    DATA     BYTE      PWM3_L_H
      000000E8H.6 SFRSYM    DATA     BIT       IIC_STOP
      00000099H   SFRSYM    DATA     BYTE      PWM0_L_L
      02000182H   SYMBOL    XDATA    ---       m_CmdReadBuf
      020001A2H   SYMBOL    XDATA    ---       m_CmdSendBuf
      020001B6H   SYMBOL    XDATA    BYTE      m_CmdSendLen
      020001B7H   SYMBOL    XDATA    ---       m_CmdSendHead
      020001BAH   SYMBOL    XDATA    WORD      m_crc16
      020001BCH   SYMBOL    XDATA    BYTE      m_CmdReadCount
      020001BDH   SYMBOL    XDATA    BYTE      m_CmdSendCount

      0100520AH   BLOCK     CODE     ---       LVL=0
      0100520AH   LINE      CODE     ---       #25
      0100520AH   LINE      CODE     ---       #26
      01005219H   LINE      CODE     ---       #27
      0100521EH   LINE      CODE     ---       #28
      0100522BH   LINE      CODE     ---       #29
      01005230H   LINE      CODE     ---       #30
      01005234H   LINE      CODE     ---       #31
      ---         BLOCKEND  ---      ---       LVL=0

      01000005H   BLOCK     CODE     ---       LVL=0
LX51 LINKER/LOCATER V4.66.100.0                                                       04/23/2024  19:14:21  PAGE 74


      01000005H   LINE      CODE     ---       #179
      01000005H   LINE      CODE     ---       #182
      ---         BLOCKEND  ---      ---       LVL=0

      ---         MODULE    ---      ---       SYSTIME
      0100501CH   PUBLIC    CODE     ---       Time_Basic
      000000BFH   SFRSYM    DATA     BYTE      SPI_SPID
      0000009DH   SFRSYM    DATA     BYTE      PWM1_L_L
      000000AEH   SFRSYM    DATA     BYTE      INT_PE_STAT
      000000A2H   SFRSYM    DATA     BYTE      PWM2_L_L
      000000C3H   SFRSYM    DATA     BYTE      ADC_SCAN_CFG
      000000A6H   SFRSYM    DATA     BYTE      PWM3_L_L
      000000A0H   SFRSYM    DATA     BYTE      P2_XH
      000000D0H.6 SFRSYM    DATA     BIT       AC
      000000BDH   SFRSYM    DATA     BYTE      SCI_D
      000000EAH   SFRSYM    DATA     BYTE      TRISA
      00000098H.1 SFRSYM    DATA     BIT       SCI_F
      000000E8H.2 SFRSYM    DATA     BIT       IIC_ACK
      000000A8H.7 SFRSYM    DATA     BIT       EA
      000000EBH   SFRSYM    DATA     BYTE      TRISB
      000000ECH   SFRSYM    DATA     BYTE      TRISC
      000000B9H   SFRSYM    DATA     BYTE      DP_CON1
      00000091H   SFRSYM    DATA     BYTE      WDT_CTRL
      00000098H.4 SFRSYM    DATA     BIT       SCI_I
      000000FBH   SFRSYM    DATA     BYTE      PCD_CFG
      000000EEH   SFRSYM    DATA     BYTE      TRISE
      000000D1H   SFRSYM    DATA     BYTE      SPROG_DATA
      000000B3H   SFRSYM    DATA     BYTE      SCAN_WIDTH
      000000EFH   SFRSYM    DATA     BYTE      TRISF
      000000F2H   SFRSYM    DATA     BYTE      TRISG
      000000ACH   SFRSYM    DATA     BYTE      CSD_RAWDATAH
      000000F7H   SFRSYM    DATA     BYTE      TRISH
      000000FCH   SFRSYM    DATA     BYTE      PCD_CMD
      000000A8H   SFRSYM    DATA     BYTE      IEN0
      00000098H.2 SFRSYM    DATA     BIT       SCI_N
      000000E6H   SFRSYM    DATA     BYTE      IEN1
      000000E7H   SFRSYM    DATA     BYTE      IEN2
      000000ABH   SFRSYM    DATA     BYTE      CSD_RAWDATAL
      00000098H.0 SFRSYM    DATA     BIT       SCI_P
      000000FEH   SFRSYM    DATA     BYTE      PCD_BIT_ER
      000000E9H   SFRSYM    DATA     BYTE      IICBUFFER
      000000E8H   SFRSYM    DATA     BYTE      IICSTAT
      000000B8H   SFRSYM    DATA     BYTE      IPL0
      000000F6H   SFRSYM    DATA     BYTE      IPL1
      000000AFH   SFRSYM    DATA     BYTE      SCAN_START
      000000F4H   SFRSYM    DATA     BYTE      IPL2
      0000008EH   SFRSYM    DATA     BYTE      SOFT_RST
      000000C4H   SFRSYM    DATA     BYTE      ADCCKC
      000000B2H   SFRSYM    DATA     BYTE      DP_MODE
      000000D0H.7 SFRSYM    DATA     BIT       CY
      000000D5H   SFRSYM    DATA     BYTE      INT_POBO_STAT
      000000E3H   SFRSYM    DATA     BYTE      IICADD
      000000DCH   SFRSYM    DATA     BYTE      UART0_BDL
      000000C1H   SFRSYM    DATA     BYTE      ADC_SPT
      000000D6H   SFRSYM    DATA     BYTE      UART1_BDL
      00000081H   SFRSYM    DATA     BYTE      SP
      000000D0H.2 SFRSYM    DATA     BIT       OV
      000000C7H   SFRSYM    DATA     BYTE      EXINT_STAT
      00000094H   SFRSYM    DATA     BYTE      TIMER2_SET_H
      000000E2H   SFRSYM    DATA     BYTE      UART0_BUF
      00000085H   SFRSYM    DATA     BYTE      TIMER3_SET_H
      000000DBH   SFRSYM    DATA     BYTE      UART1_BUF
      000000CAH   SFRSYM    DATA     BYTE      PULL_I_SEL
      000000F1H   SFRSYM    DATA     BYTE      IRCON1
      000000E1H   SFRSYM    DATA     BYTE      IRCON2
LX51 LINKER/LOCATER V4.66.100.0                                                       04/23/2024  19:14:21  PAGE 75


      00000095H   SFRSYM    DATA     BYTE      TIMER2_SET_L
      00000086H   SFRSYM    DATA     BYTE      TIMER3_SET_L
      00000087H   SFRSYM    DATA     BYTE      PCON
      000000CEH   SFRSYM    DATA     BYTE      SPROG_ADDR_H
      000000EDH   SFRSYM    DATA     BYTE      SCI_C1
      000000E4H   SFRSYM    DATA     BYTE      IICBUF
      000000BAH   SFRSYM    DATA     BYTE      SCI_C2
      00000089H   SFRSYM    DATA     BYTE      TMOD
      00000088H   SFRSYM    DATA     BYTE      TCON
      000000CFH   SFRSYM    DATA     BYTE      SPROG_ADDR_L
      000000BBH   SFRSYM    DATA     BYTE      SCI_C3
      000000E8H.0 SFRSYM    DATA     BIT       IIC_RECOV
      000000E5H   SFRSYM    DATA     BYTE      IICCON
      000000E8H.4 SFRSYM    DATA     BIT       IIC_AD
      000000FDH   SFRSYM    DATA     BYTE      PCD_CFG2
      000000FFH   SFRSYM    DATA     BYTE      PCD_CFG3
      000000E8H.3 SFRSYM    DATA     BIT       IIC_BF
      00000088H.1 SFRSYM    DATA     BIT       IE0
      00000088H.3 SFRSYM    DATA     BIT       IE1
      000000F8H.0 SFRSYM    DATA     BIT       PA0
      000000F0H   SFRSYM    DATA     BYTE      B
      00000080H.0 SFRSYM    DATA     BIT       PB0
      000000F8H.1 SFRSYM    DATA     BIT       PA1
      000000D2H   SFRSYM    DATA     BYTE      SPROG_CMD
      00000090H.0 SFRSYM    DATA     BIT       PC0
      00000080H.1 SFRSYM    DATA     BIT       PB1
      000000F8H.2 SFRSYM    DATA     BIT       PA2
      00000090H.1 SFRSYM    DATA     BIT       PC1
      00000080H.2 SFRSYM    DATA     BIT       PB2
      000000F8H.3 SFRSYM    DATA     BIT       PA3
      00000098H   SFRSYM    DATA     BYTE      SCI_S1
      000000B0H.0 SFRSYM    DATA     BIT       PE0
      00000090H.2 SFRSYM    DATA     BIT       PC2
      00000080H.3 SFRSYM    DATA     BIT       PB3
      000000BCH   SFRSYM    DATA     BYTE      SCI_S2
      000000E8H.7 SFRSYM    DATA     BIT       IIC_START
      000000C0H.0 SFRSYM    DATA     BIT       PF0
      000000B0H.1 SFRSYM    DATA     BIT       PE1
      00000090H.3 SFRSYM    DATA     BIT       PC3
      00000080H.4 SFRSYM    DATA     BIT       PB4
      000000C8H.0 SFRSYM    DATA     BIT       PG0
      000000C0H.1 SFRSYM    DATA     BIT       PF1
      000000B0H.2 SFRSYM    DATA     BIT       PE2
      00000090H.4 SFRSYM    DATA     BIT       PC4
      00000080H.5 SFRSYM    DATA     BIT       PB5
      000000F9H   SFRSYM    DATA     BYTE      PCD_BUF1
      000000E0H   SFRSYM    DATA     BYTE      ACC
      000000D8H.0 SFRSYM    DATA     BIT       PH0
      000000C8H.1 SFRSYM    DATA     BIT       PG1
      000000C0H.2 SFRSYM    DATA     BIT       PF2
      000000B0H.3 SFRSYM    DATA     BIT       PE3
      00000090H.5 SFRSYM    DATA     BIT       PC5
      00000080H.6 SFRSYM    DATA     BIT       PB6
      000000FAH   SFRSYM    DATA     BYTE      PCD_BUF2
      000000D8H.1 SFRSYM    DATA     BIT       PH1
      000000C8H.2 SFRSYM    DATA     BIT       PG2
      000000C0H.3 SFRSYM    DATA     BIT       PF3
      000000B0H.4 SFRSYM    DATA     BIT       PE4
      000000A8H.1 SFRSYM    DATA     BIT       ET0
      00000090H.6 SFRSYM    DATA     BIT       PC6
      00000080H.7 SFRSYM    DATA     BIT       PB7
      000000D8H.2 SFRSYM    DATA     BIT       PH2
      000000C8H.3 SFRSYM    DATA     BIT       PG3
      000000C0H.4 SFRSYM    DATA     BIT       PF4
      000000B0H.5 SFRSYM    DATA     BIT       PE5
LX51 LINKER/LOCATER V4.66.100.0                                                       04/23/2024  19:14:21  PAGE 76


      000000A8H.3 SFRSYM    DATA     BIT       ET1
      00000090H.7 SFRSYM    DATA     BIT       PC7
      00000088H.5 SFRSYM    DATA     BIT       TF0
      000000D8H.3 SFRSYM    DATA     BIT       PH3
      000000C0H.5 SFRSYM    DATA     BIT       PF5
      000000B0H.6 SFRSYM    DATA     BIT       PE6
      00000088H.7 SFRSYM    DATA     BIT       TF1
      000000C9H   SFRSYM    DATA     BYTE      CSD_START
      000000D8H.4 SFRSYM    DATA     BIT       PH4
      000000C0H.6 SFRSYM    DATA     BIT       PF6
      000000B0H.7 SFRSYM    DATA     BIT       PE7
      0000008CH   SFRSYM    DATA     BYTE      TH0
      000000D8H.5 SFRSYM    DATA     BIT       PH5
      000000C0H.7 SFRSYM    DATA     BIT       PF7
      000000A8H.0 SFRSYM    DATA     BIT       EX0
      0000008DH   SFRSYM    DATA     BYTE      TH1
      000000D8H.6 SFRSYM    DATA     BIT       PH6
      000000A8H.2 SFRSYM    DATA     BIT       EX1
      000000D8H.7 SFRSYM    DATA     BIT       PH7
      000000D0H.0 SFRSYM    DATA     BIT       P
      000000B5H   SFRSYM    DATA     BYTE      SPI_CFG1
      000000BEH   SFRSYM    DATA     BYTE      SPI_STATE
      000000B6H   SFRSYM    DATA     BYTE      SPI_CFG2
      0000008AH   SFRSYM    DATA     BYTE      TL0
      000000DFH   SFRSYM    DATA     BYTE      UART0_STATE
      0000008BH   SFRSYM    DATA     BYTE      TL1
      000000DAH   SFRSYM    DATA     BYTE      UART1_STATE
      000000B8H.1 SFRSYM    DATA     BIT       PT0
      000000D0H.3 SFRSYM    DATA     BIT       RS0
      000000B8H.3 SFRSYM    DATA     BIT       PT1
      000000B1H   SFRSYM    DATA     BYTE      DP_CON
      000000D0H.4 SFRSYM    DATA     BIT       RS1
      00000088H.4 SFRSYM    DATA     BIT       TR0
      00000088H.6 SFRSYM    DATA     BIT       TR1
      000000B8H.0 SFRSYM    DATA     BIT       PX0
      000000D3H   SFRSYM    DATA     BYTE      SPROG_TIM
      00000098H.7 SFRSYM    DATA     BIT       SCI_TE
      00000098H.6 SFRSYM    DATA     BIT       SCI_TF
      000000B8H.2 SFRSYM    DATA     BIT       PX2
      00000097H   SFRSYM    DATA     BYTE      REG_DATA
      00000098H.5 SFRSYM    DATA     BIT       SCI_RI
      000000D4H   SFRSYM    DATA     BYTE      SPROG_RDATA
      00000096H   SFRSYM    DATA     BYTE      REG_ADDR
      000000F8H   SFRSYM    DATA     BYTE      DATAA
      00000083H   SFRSYM    DATA     BYTE      DPH
      00000080H   SFRSYM    DATA     BYTE      DATAB
      000000CBH   SFRSYM    DATA     BYTE      SNS_SCAN_CFG1
      00000090H   SFRSYM    DATA     BYTE      DATAC
      000000E8H.5 SFRSYM    DATA     BIT       IIC_RW
      000000CCH   SFRSYM    DATA     BYTE      SNS_SCAN_CFG2
      000000C5H   SFRSYM    DATA     BYTE      ADC_RDATAH
      000000DDH   SFRSYM    DATA     BYTE      UART0_CON1
      000000CDH   SFRSYM    DATA     BYTE      SNS_SCAN_CFG3
      000000B0H   SFRSYM    DATA     BYTE      DATAE
      00000082H   SFRSYM    DATA     BYTE      DPL
      00000098H.3 SFRSYM    DATA     BIT       SCI_RO
      000000DEH   SFRSYM    DATA     BYTE      UART0_CON2
      000000D7H   SFRSYM    DATA     BYTE      UART1_CON1
      000000C0H   SFRSYM    DATA     BYTE      DATAF
      000000D9H   SFRSYM    DATA     BYTE      UART1_CON2
      000000C8H   SFRSYM    DATA     BYTE      DATAG
      000000D8H   SFRSYM    DATA     BYTE      DATAH
      000000C6H   SFRSYM    DATA     BYTE      ADC_RDATAL
      00000092H   SFRSYM    DATA     BYTE      WDT_EN
      00000093H   SFRSYM    DATA     BYTE      TIMER2_CFG
LX51 LINKER/LOCATER V4.66.100.0                                                       04/23/2024  19:14:21  PAGE 77


      00000084H   SFRSYM    DATA     BYTE      TIMER3_CFG
      000000B4H   SFRSYM    DATA     BYTE      LED2_WIDTH
      000000E8H.1 SFRSYM    DATA     BIT       IIC_WCOL
      000000ADH   SFRSYM    DATA     BYTE      SYS_CLK_CFG
      000000C2H   SFRSYM    DATA     BYTE      SCI_INT_CLR
      000000D0H.5 SFRSYM    DATA     BIT       F0
      0000009CH   SFRSYM    DATA     BYTE      PWM0_H_H
      000000D0H.1 SFRSYM    DATA     BIT       F1
      000000A1H   SFRSYM    DATA     BYTE      PWM1_H_H
      000000A5H   SFRSYM    DATA     BYTE      PWM2_H_H
      000000AAH   SFRSYM    DATA     BYTE      PWM3_H_H
      0000009BH   SFRSYM    DATA     BYTE      PWM0_H_L
      0000009AH   SFRSYM    DATA     BYTE      PWM0_L_H
      000000D0H   SFRSYM    DATA     BYTE      PSW
      0000009FH   SFRSYM    DATA     BYTE      PWM1_H_L
      0000009EH   SFRSYM    DATA     BYTE      PWM1_L_H
      000000A4H   SFRSYM    DATA     BYTE      PWM2_H_L
      000000A3H   SFRSYM    DATA     BYTE      PWM2_L_H
      000000A9H   SFRSYM    DATA     BYTE      PWM3_H_L
      000000A7H   SFRSYM    DATA     BYTE      PWM3_L_H
      000000E8H.6 SFRSYM    DATA     BIT       IIC_STOP
      00000099H   SFRSYM    DATA     BYTE      PWM0_L_L

      0100501CH   BLOCK     CODE     ---       LVL=0
      0100501CH   LINE      CODE     ---       #16
      0100501CH   LINE      CODE     ---       #17
      0100501CH   LINE      CODE     ---       #18
      01005025H   LINE      CODE     ---       #19
      0100502EH   LINE      CODE     ---       #20
      01005037H   LINE      CODE     ---       #21
      0100504FH   LINE      CODE     ---       #22
      01005067H   LINE      CODE     ---       #23
      ---         BLOCKEND  ---      ---       LVL=0

      ---         MODULE    ---      ---       SM16306SJ
      020001F0H   PUBLIC    XDATA    BYTE      SM16xx_Step
      0000001AH   PUBLIC    IDATA    ---       SM16xx_Dat
      020001EEH   PUBLIC    XDATA    WORD      r_SM16106
      020001EDH   PUBLIC    XDATA    BYTE      HuXiDengRunDuty
      020001ECH   PUBLIC    XDATA    BYTE      HuXiDengRunStep
      020001EBH   PUBLIC    XDATA    BYTE      HuXiDengRunTimeBasicCnt
      020001EAH   PUBLIC    XDATA    BYTE      SM16xx_ScanCNT
      00000014H   PUBLIC    IDATA    ---       SM16xx_KeyTabRS
      0000000EH   PUBLIC    IDATA    ---       SM16xx_DatRs
      020001E9H   PUBLIC    XDATA    BYTE      KeyScan_Step
      00000008H   PUBLIC    IDATA    ---       SM16xx_KeyTab
      020001E8H   PUBLIC    XDATA    BYTE      SM16xx_WriteAll_Cnt
      020001E7H   PUBLIC    XDATA    BYTE      HuXiDengRunDutyCnt
      0100533DH   PUBLIC    CODE     ---       SM16xx_WriteAll
      01004D8EH   PUBLIC    CODE     ---       SM16xx_Init
      01004F78H   PUBLIC    CODE     ---       _SM16xx_WriteOneByte
      01005329H   PUBLIC    CODE     ---       _Delay_NOP
      000000BFH   SFRSYM    DATA     BYTE      SPI_SPID
      0000009DH   SFRSYM    DATA     BYTE      PWM1_L_L
      000000AEH   SFRSYM    DATA     BYTE      INT_PE_STAT
      000000A2H   SFRSYM    DATA     BYTE      PWM2_L_L
      000000C3H   SFRSYM    DATA     BYTE      ADC_SCAN_CFG
      000000A6H   SFRSYM    DATA     BYTE      PWM3_L_L
      000000A0H   SFRSYM    DATA     BYTE      P2_XH
      000000D0H.6 SFRSYM    DATA     BIT       AC
      000000BDH   SFRSYM    DATA     BYTE      SCI_D
      000000EAH   SFRSYM    DATA     BYTE      TRISA
      00000098H.1 SFRSYM    DATA     BIT       SCI_F
      000000E8H.2 SFRSYM    DATA     BIT       IIC_ACK
      000000A8H.7 SFRSYM    DATA     BIT       EA
LX51 LINKER/LOCATER V4.66.100.0                                                       04/23/2024  19:14:21  PAGE 78


      000000EBH   SFRSYM    DATA     BYTE      TRISB
      000000ECH   SFRSYM    DATA     BYTE      TRISC
      000000B9H   SFRSYM    DATA     BYTE      DP_CON1
      00000091H   SFRSYM    DATA     BYTE      WDT_CTRL
      00000098H.4 SFRSYM    DATA     BIT       SCI_I
      000000FBH   SFRSYM    DATA     BYTE      PCD_CFG
      000000EEH   SFRSYM    DATA     BYTE      TRISE
      000000D1H   SFRSYM    DATA     BYTE      SPROG_DATA
      000000B3H   SFRSYM    DATA     BYTE      SCAN_WIDTH
      000000EFH   SFRSYM    DATA     BYTE      TRISF
      000000F2H   SFRSYM    DATA     BYTE      TRISG
      000000ACH   SFRSYM    DATA     BYTE      CSD_RAWDATAH
      000000F7H   SFRSYM    DATA     BYTE      TRISH
      000000FCH   SFRSYM    DATA     BYTE      PCD_CMD
      000000A8H   SFRSYM    DATA     BYTE      IEN0
      00000098H.2 SFRSYM    DATA     BIT       SCI_N
      000000E6H   SFRSYM    DATA     BYTE      IEN1
      000000E7H   SFRSYM    DATA     BYTE      IEN2
      000000ABH   SFRSYM    DATA     BYTE      CSD_RAWDATAL
      00000098H.0 SFRSYM    DATA     BIT       SCI_P
      000000FEH   SFRSYM    DATA     BYTE      PCD_BIT_ER
      000000E9H   SFRSYM    DATA     BYTE      IICBUFFER
      000000E8H   SFRSYM    DATA     BYTE      IICSTAT
      000000B8H   SFRSYM    DATA     BYTE      IPL0
      000000F6H   SFRSYM    DATA     BYTE      IPL1
      000000AFH   SFRSYM    DATA     BYTE      SCAN_START
      000000F4H   SFRSYM    DATA     BYTE      IPL2
      0000008EH   SFRSYM    DATA     BYTE      SOFT_RST
      000000C4H   SFRSYM    DATA     BYTE      ADCCKC
      000000B2H   SFRSYM    DATA     BYTE      DP_MODE
      000000D0H.7 SFRSYM    DATA     BIT       CY
      000000D5H   SFRSYM    DATA     BYTE      INT_POBO_STAT
      000000E3H   SFRSYM    DATA     BYTE      IICADD
      000000DCH   SFRSYM    DATA     BYTE      UART0_BDL
      000000C1H   SFRSYM    DATA     BYTE      ADC_SPT
      000000D6H   SFRSYM    DATA     BYTE      UART1_BDL
      00000081H   SFRSYM    DATA     BYTE      SP
      000000D0H.2 SFRSYM    DATA     BIT       OV
      000000C7H   SFRSYM    DATA     BYTE      EXINT_STAT
      00000094H   SFRSYM    DATA     BYTE      TIMER2_SET_H
      000000E2H   SFRSYM    DATA     BYTE      UART0_BUF
      00000085H   SFRSYM    DATA     BYTE      TIMER3_SET_H
      000000DBH   SFRSYM    DATA     BYTE      UART1_BUF
      000000CAH   SFRSYM    DATA     BYTE      PULL_I_SEL
      000000F1H   SFRSYM    DATA     BYTE      IRCON1
      000000E1H   SFRSYM    DATA     BYTE      IRCON2
      00000095H   SFRSYM    DATA     BYTE      TIMER2_SET_L
      00000086H   SFRSYM    DATA     BYTE      TIMER3_SET_L
      00000087H   SFRSYM    DATA     BYTE      PCON
      000000CEH   SFRSYM    DATA     BYTE      SPROG_ADDR_H
      000000EDH   SFRSYM    DATA     BYTE      SCI_C1
      000000E4H   SFRSYM    DATA     BYTE      IICBUF
      000000BAH   SFRSYM    DATA     BYTE      SCI_C2
      00000089H   SFRSYM    DATA     BYTE      TMOD
      00000088H   SFRSYM    DATA     BYTE      TCON
      000000CFH   SFRSYM    DATA     BYTE      SPROG_ADDR_L
      000000BBH   SFRSYM    DATA     BYTE      SCI_C3
      000000E8H.0 SFRSYM    DATA     BIT       IIC_RECOV
      000000E5H   SFRSYM    DATA     BYTE      IICCON
      000000E8H.4 SFRSYM    DATA     BIT       IIC_AD
      000000FDH   SFRSYM    DATA     BYTE      PCD_CFG2
      000000FFH   SFRSYM    DATA     BYTE      PCD_CFG3
      000000E8H.3 SFRSYM    DATA     BIT       IIC_BF
      00000088H.1 SFRSYM    DATA     BIT       IE0
      00000088H.3 SFRSYM    DATA     BIT       IE1
LX51 LINKER/LOCATER V4.66.100.0                                                       04/23/2024  19:14:21  PAGE 79


      000000F8H.0 SFRSYM    DATA     BIT       PA0
      000000F0H   SFRSYM    DATA     BYTE      B
      00000080H.0 SFRSYM    DATA     BIT       PB0
      000000F8H.1 SFRSYM    DATA     BIT       PA1
      000000D2H   SFRSYM    DATA     BYTE      SPROG_CMD
      00000090H.0 SFRSYM    DATA     BIT       PC0
      00000080H.1 SFRSYM    DATA     BIT       PB1
      000000F8H.2 SFRSYM    DATA     BIT       PA2
      00000090H.1 SFRSYM    DATA     BIT       PC1
      00000080H.2 SFRSYM    DATA     BIT       PB2
      000000F8H.3 SFRSYM    DATA     BIT       PA3
      00000098H   SFRSYM    DATA     BYTE      SCI_S1
      000000B0H.0 SFRSYM    DATA     BIT       PE0
      00000090H.2 SFRSYM    DATA     BIT       PC2
      00000080H.3 SFRSYM    DATA     BIT       PB3
      000000BCH   SFRSYM    DATA     BYTE      SCI_S2
      000000E8H.7 SFRSYM    DATA     BIT       IIC_START
      000000C0H.0 SFRSYM    DATA     BIT       PF0
      000000B0H.1 SFRSYM    DATA     BIT       PE1
      00000090H.3 SFRSYM    DATA     BIT       PC3
      00000080H.4 SFRSYM    DATA     BIT       PB4
      000000C8H.0 SFRSYM    DATA     BIT       PG0
      000000C0H.1 SFRSYM    DATA     BIT       PF1
      000000B0H.2 SFRSYM    DATA     BIT       PE2
      00000090H.4 SFRSYM    DATA     BIT       PC4
      00000080H.5 SFRSYM    DATA     BIT       PB5
      000000F9H   SFRSYM    DATA     BYTE      PCD_BUF1
      000000E0H   SFRSYM    DATA     BYTE      ACC
      000000D8H.0 SFRSYM    DATA     BIT       PH0
      000000C8H.1 SFRSYM    DATA     BIT       PG1
      000000C0H.2 SFRSYM    DATA     BIT       PF2
      000000B0H.3 SFRSYM    DATA     BIT       PE3
      00000090H.5 SFRSYM    DATA     BIT       PC5
      00000080H.6 SFRSYM    DATA     BIT       PB6
      000000FAH   SFRSYM    DATA     BYTE      PCD_BUF2
      000000D8H.1 SFRSYM    DATA     BIT       PH1
      000000C8H.2 SFRSYM    DATA     BIT       PG2
      000000C0H.3 SFRSYM    DATA     BIT       PF3
      000000B0H.4 SFRSYM    DATA     BIT       PE4
      000000A8H.1 SFRSYM    DATA     BIT       ET0
      00000090H.6 SFRSYM    DATA     BIT       PC6
      00000080H.7 SFRSYM    DATA     BIT       PB7
      000000D8H.2 SFRSYM    DATA     BIT       PH2
      000000C8H.3 SFRSYM    DATA     BIT       PG3
      000000C0H.4 SFRSYM    DATA     BIT       PF4
      000000B0H.5 SFRSYM    DATA     BIT       PE5
      000000A8H.3 SFRSYM    DATA     BIT       ET1
      00000090H.7 SFRSYM    DATA     BIT       PC7
      00000088H.5 SFRSYM    DATA     BIT       TF0
      000000D8H.3 SFRSYM    DATA     BIT       PH3
      000000C0H.5 SFRSYM    DATA     BIT       PF5
      000000B0H.6 SFRSYM    DATA     BIT       PE6
      00000088H.7 SFRSYM    DATA     BIT       TF1
      000000C9H   SFRSYM    DATA     BYTE      CSD_START
      000000D8H.4 SFRSYM    DATA     BIT       PH4
      000000C0H.6 SFRSYM    DATA     BIT       PF6
      000000B0H.7 SFRSYM    DATA     BIT       PE7
      0000008CH   SFRSYM    DATA     BYTE      TH0
      000000D8H.5 SFRSYM    DATA     BIT       PH5
      000000C0H.7 SFRSYM    DATA     BIT       PF7
      000000A8H.0 SFRSYM    DATA     BIT       EX0
      0000008DH   SFRSYM    DATA     BYTE      TH1
      000000D8H.6 SFRSYM    DATA     BIT       PH6
      000000A8H.2 SFRSYM    DATA     BIT       EX1
      000000D8H.7 SFRSYM    DATA     BIT       PH7
LX51 LINKER/LOCATER V4.66.100.0                                                       04/23/2024  19:14:21  PAGE 80


      000000D0H.0 SFRSYM    DATA     BIT       P
      000000B5H   SFRSYM    DATA     BYTE      SPI_CFG1
      000000BEH   SFRSYM    DATA     BYTE      SPI_STATE
      000000B6H   SFRSYM    DATA     BYTE      SPI_CFG2
      0000008AH   SFRSYM    DATA     BYTE      TL0
      000000DFH   SFRSYM    DATA     BYTE      UART0_STATE
      0000008BH   SFRSYM    DATA     BYTE      TL1
      000000DAH   SFRSYM    DATA     BYTE      UART1_STATE
      000000B8H.1 SFRSYM    DATA     BIT       PT0
      000000D0H.3 SFRSYM    DATA     BIT       RS0
      000000B8H.3 SFRSYM    DATA     BIT       PT1
      000000B1H   SFRSYM    DATA     BYTE      DP_CON
      000000D0H.4 SFRSYM    DATA     BIT       RS1
      00000088H.4 SFRSYM    DATA     BIT       TR0
      00000088H.6 SFRSYM    DATA     BIT       TR1
      000000B8H.0 SFRSYM    DATA     BIT       PX0
      000000D3H   SFRSYM    DATA     BYTE      SPROG_TIM
      00000098H.7 SFRSYM    DATA     BIT       SCI_TE
      00000098H.6 SFRSYM    DATA     BIT       SCI_TF
      000000B8H.2 SFRSYM    DATA     BIT       PX2
      00000097H   SFRSYM    DATA     BYTE      REG_DATA
      00000098H.5 SFRSYM    DATA     BIT       SCI_RI
      000000D4H   SFRSYM    DATA     BYTE      SPROG_RDATA
      00000096H   SFRSYM    DATA     BYTE      REG_ADDR
      000000F8H   SFRSYM    DATA     BYTE      DATAA
      00000083H   SFRSYM    DATA     BYTE      DPH
      00000080H   SFRSYM    DATA     BYTE      DATAB
      000000CBH   SFRSYM    DATA     BYTE      SNS_SCAN_CFG1
      00000090H   SFRSYM    DATA     BYTE      DATAC
      000000E8H.5 SFRSYM    DATA     BIT       IIC_RW
      000000CCH   SFRSYM    DATA     BYTE      SNS_SCAN_CFG2
      000000C5H   SFRSYM    DATA     BYTE      ADC_RDATAH
      000000DDH   SFRSYM    DATA     BYTE      UART0_CON1
      000000CDH   SFRSYM    DATA     BYTE      SNS_SCAN_CFG3
      000000B0H   SFRSYM    DATA     BYTE      DATAE
      00000082H   SFRSYM    DATA     BYTE      DPL
      00000098H.3 SFRSYM    DATA     BIT       SCI_RO
      000000DEH   SFRSYM    DATA     BYTE      UART0_CON2
      000000D7H   SFRSYM    DATA     BYTE      UART1_CON1
      000000C0H   SFRSYM    DATA     BYTE      DATAF
      000000D9H   SFRSYM    DATA     BYTE      UART1_CON2
      000000C8H   SFRSYM    DATA     BYTE      DATAG
      000000D8H   SFRSYM    DATA     BYTE      DATAH
      000000C6H   SFRSYM    DATA     BYTE      ADC_RDATAL
      00000092H   SFRSYM    DATA     BYTE      WDT_EN
      00000093H   SFRSYM    DATA     BYTE      TIMER2_CFG
      00000084H   SFRSYM    DATA     BYTE      TIMER3_CFG
      000000B4H   SFRSYM    DATA     BYTE      LED2_WIDTH
      000000E8H.1 SFRSYM    DATA     BIT       IIC_WCOL
      000000ADH   SFRSYM    DATA     BYTE      SYS_CLK_CFG
      000000C2H   SFRSYM    DATA     BYTE      SCI_INT_CLR
      000000D0H.5 SFRSYM    DATA     BIT       F0
      0000009CH   SFRSYM    DATA     BYTE      PWM0_H_H
      000000D0H.1 SFRSYM    DATA     BIT       F1
      000000A1H   SFRSYM    DATA     BYTE      PWM1_H_H
      000000A5H   SFRSYM    DATA     BYTE      PWM2_H_H
      000000AAH   SFRSYM    DATA     BYTE      PWM3_H_H
      0000009BH   SFRSYM    DATA     BYTE      PWM0_H_L
      0000009AH   SFRSYM    DATA     BYTE      PWM0_L_H
      000000D0H   SFRSYM    DATA     BYTE      PSW
      0000009FH   SFRSYM    DATA     BYTE      PWM1_H_L
      0000009EH   SFRSYM    DATA     BYTE      PWM1_L_H
      000000A4H   SFRSYM    DATA     BYTE      PWM2_H_L
      000000A3H   SFRSYM    DATA     BYTE      PWM2_L_H
      000000A9H   SFRSYM    DATA     BYTE      PWM3_H_L
LX51 LINKER/LOCATER V4.66.100.0                                                       04/23/2024  19:14:21  PAGE 81


      000000A7H   SFRSYM    DATA     BYTE      PWM3_L_H
      000000E8H.6 SFRSYM    DATA     BIT       IIC_STOP
      00000099H   SFRSYM    DATA     BYTE      PWM0_L_L

      01005329H   BLOCK     CODE     ---       LVL=0
      020001D4H   SYMBOL    XDATA    BYTE      Nop_Cnt
      01005329H   LINE      CODE     ---       #26
      0100532EH   LINE      CODE     ---       #27
      01005337H   LINE      CODE     ---       #28
      01005337H   LINE      CODE     ---       #29
      0100533AH   LINE      CODE     ---       #30
      0100533CH   LINE      CODE     ---       #31
      ---         BLOCKEND  ---      ---       LVL=0

      01004F78H   BLOCK     CODE     ---       LVL=0
      020001D1H   SYMBOL    XDATA    WORD      Dat_OneByte
      01004F80H   BLOCK     CODE     NEAR LAB  LVL=1
      020001D3H   SYMBOL    XDATA    BYTE      i
      ---         BLOCKEND  ---      ---       LVL=1
      01004F78H   LINE      CODE     ---       #33
      01004F80H   LINE      CODE     ---       #35
      01004F82H   LINE      CODE     ---       #36
      01004F87H   LINE      CODE     ---       #37
      01004F95H   LINE      CODE     ---       #38
      01004F95H   LINE      CODE     ---       #39
      01004F97H   LINE      CODE     ---       #40
      01004FA2H   LINE      CODE     ---       #41
      01004FA4H   LINE      CODE     ---       #42
      01004FA6H   LINE      CODE     ---       #43
      01004FA8H   LINE      CODE     ---       #44
      01004FA8H   LINE      CODE     ---       #45
      01004FBBH   LINE      CODE     ---       #46
      01004FBDH   LINE      CODE     ---       #47
      01004FC2H   LINE      CODE     ---       #48
      01004FCAH   LINE      CODE     ---       #49
      01004FCCH   LINE      CODE     ---       #50
      ---         BLOCKEND  ---      ---       LVL=0

      01004D8EH   BLOCK     CODE     ---       LVL=0
      01004D8EH   LINE      CODE     ---       #64
      01004D8EH   LINE      CODE     ---       #66
      01004DA1H   LINE      CODE     ---       #68
      01004DA4H   LINE      CODE     ---       #69
      01004DA7H   LINE      CODE     ---       #70
      01004DAAH   LINE      CODE     ---       #71
      01004DADH   LINE      CODE     ---       #73
      01004DAFH   LINE      CODE     ---       #74
      01004DB1H   LINE      CODE     ---       #75
      01004DB3H   LINE      CODE     ---       #76
      01004DB5H   LINE      CODE     ---       #78
      01004DB8H   LINE      CODE     ---       #79
      01004DBBH   LINE      CODE     ---       #80
      01004DBEH   LINE      CODE     ---       #81
      01004DC1H   LINE      CODE     ---       #82
      01004DC4H   LINE      CODE     ---       #83
      01004DC7H   LINE      CODE     ---       #84
      01004DCAH   LINE      CODE     ---       #85
      01004DCDH   LINE      CODE     ---       #86
      01004DD0H   LINE      CODE     ---       #87
      01004DD3H   LINE      CODE     ---       #88
      01004DD6H   LINE      CODE     ---       #89
      01004DD9H   LINE      CODE     ---       #90
      01004DDCH   LINE      CODE     ---       #91
      01004DDFH   LINE      CODE     ---       #92
      01004DE2H   LINE      CODE     ---       #93
LX51 LINKER/LOCATER V4.66.100.0                                                       04/23/2024  19:14:21  PAGE 82


      01004DE5H   LINE      CODE     ---       #116
      01004DE7H   LINE      CODE     ---       #117
      01004DE9H   LINE      CODE     ---       #119
      01004DEBH   LINE      CODE     ---       #120
      01004DEDH   LINE      CODE     ---       #121
      01004DEFH   LINE      CODE     ---       #122
      01004DF1H   LINE      CODE     ---       #123
      01004DF3H   LINE      CODE     ---       #124
      01004DF5H   LINE      CODE     ---       #125
      01004DF7H   LINE      CODE     ---       #126
      01004DF9H   LINE      CODE     ---       #127
      01004DFBH   LINE      CODE     ---       #128
      01004DFDH   LINE      CODE     ---       #129
      01004DFFH   LINE      CODE     ---       #130
      01004E01H   LINE      CODE     ---       #131
      01004E03H   LINE      CODE     ---       #132
      01004E05H   LINE      CODE     ---       #135
      ---         BLOCKEND  ---      ---       LVL=0

      0100533DH   BLOCK     CODE     ---       LVL=0
      0100533DH   LINE      CODE     ---       #139
      0100533DH   LINE      CODE     ---       #141
      0100533FH   LINE      CODE     ---       #142
      01005341H   LINE      CODE     ---       #144
      0100534CH   LINE      CODE     ---       #148
      0100534EH   LINE      CODE     ---       #150
      01005350H   LINE      CODE     ---       #151
      ---         BLOCKEND  ---      ---       LVL=0

      ---         MODULE    ---      ---       KEY_FUNCTION
      020001F1H   PUBLIC    XDATA    ---       KeyData
      01003B9AH   PUBLIC    CODE     ---       Key_Function_Deal
      01004575H   PUBLIC    CODE     ---       Get_Key_Code
      01004C8CH   PUBLIC    CODE     ---       _KEY_NUM
      000000BFH   SFRSYM    DATA     BYTE      SPI_SPID
      0000009DH   SFRSYM    DATA     BYTE      PWM1_L_L
      000000AEH   SFRSYM    DATA     BYTE      INT_PE_STAT
      000000A2H   SFRSYM    DATA     BYTE      PWM2_L_L
      000000C3H   SFRSYM    DATA     BYTE      ADC_SCAN_CFG
      000000A6H   SFRSYM    DATA     BYTE      PWM3_L_L
      000000A0H   SFRSYM    DATA     BYTE      P2_XH
      000000D0H.6 SFRSYM    DATA     BIT       AC
      000000BDH   SFRSYM    DATA     BYTE      SCI_D
      000000EAH   SFRSYM    DATA     BYTE      TRISA
      00000098H.1 SFRSYM    DATA     BIT       SCI_F
      000000E8H.2 SFRSYM    DATA     BIT       IIC_ACK
      000000A8H.7 SFRSYM    DATA     BIT       EA
      000000EBH   SFRSYM    DATA     BYTE      TRISB
      000000ECH   SFRSYM    DATA     BYTE      TRISC
      000000B9H   SFRSYM    DATA     BYTE      DP_CON1
      00000091H   SFRSYM    DATA     BYTE      WDT_CTRL
      00000098H.4 SFRSYM    DATA     BIT       SCI_I
      000000FBH   SFRSYM    DATA     BYTE      PCD_CFG
      000000EEH   SFRSYM    DATA     BYTE      TRISE
      000000D1H   SFRSYM    DATA     BYTE      SPROG_DATA
      000000B3H   SFRSYM    DATA     BYTE      SCAN_WIDTH
      000000EFH   SFRSYM    DATA     BYTE      TRISF
      000000F2H   SFRSYM    DATA     BYTE      TRISG
      000000ACH   SFRSYM    DATA     BYTE      CSD_RAWDATAH
      000000F7H   SFRSYM    DATA     BYTE      TRISH
      000000FCH   SFRSYM    DATA     BYTE      PCD_CMD
      000000A8H   SFRSYM    DATA     BYTE      IEN0
      00000098H.2 SFRSYM    DATA     BIT       SCI_N
      000000E6H   SFRSYM    DATA     BYTE      IEN1
      000000E7H   SFRSYM    DATA     BYTE      IEN2
LX51 LINKER/LOCATER V4.66.100.0                                                       04/23/2024  19:14:21  PAGE 83


      000000ABH   SFRSYM    DATA     BYTE      CSD_RAWDATAL
      00000098H.0 SFRSYM    DATA     BIT       SCI_P
      000000FEH   SFRSYM    DATA     BYTE      PCD_BIT_ER
      000000E9H   SFRSYM    DATA     BYTE      IICBUFFER
      000000E8H   SFRSYM    DATA     BYTE      IICSTAT
      000000B8H   SFRSYM    DATA     BYTE      IPL0
      000000F6H   SFRSYM    DATA     BYTE      IPL1
      000000AFH   SFRSYM    DATA     BYTE      SCAN_START
      000000F4H   SFRSYM    DATA     BYTE      IPL2
      0000008EH   SFRSYM    DATA     BYTE      SOFT_RST
      000000C4H   SFRSYM    DATA     BYTE      ADCCKC
      000000B2H   SFRSYM    DATA     BYTE      DP_MODE
      000000D0H.7 SFRSYM    DATA     BIT       CY
      000000D5H   SFRSYM    DATA     BYTE      INT_POBO_STAT
      000000E3H   SFRSYM    DATA     BYTE      IICADD
      000000DCH   SFRSYM    DATA     BYTE      UART0_BDL
      000000C1H   SFRSYM    DATA     BYTE      ADC_SPT
      000000D6H   SFRSYM    DATA     BYTE      UART1_BDL
      00000081H   SFRSYM    DATA     BYTE      SP
      000000D0H.2 SFRSYM    DATA     BIT       OV
      000000C7H   SFRSYM    DATA     BYTE      EXINT_STAT
      00000094H   SFRSYM    DATA     BYTE      TIMER2_SET_H
      000000E2H   SFRSYM    DATA     BYTE      UART0_BUF
      00000085H   SFRSYM    DATA     BYTE      TIMER3_SET_H
      000000DBH   SFRSYM    DATA     BYTE      UART1_BUF
      000000CAH   SFRSYM    DATA     BYTE      PULL_I_SEL
      000000F1H   SFRSYM    DATA     BYTE      IRCON1
      000000E1H   SFRSYM    DATA     BYTE      IRCON2
      00000095H   SFRSYM    DATA     BYTE      TIMER2_SET_L
      00000086H   SFRSYM    DATA     BYTE      TIMER3_SET_L
      00000087H   SFRSYM    DATA     BYTE      PCON
      000000CEH   SFRSYM    DATA     BYTE      SPROG_ADDR_H
      000000EDH   SFRSYM    DATA     BYTE      SCI_C1
      000000E4H   SFRSYM    DATA     BYTE      IICBUF
      000000BAH   SFRSYM    DATA     BYTE      SCI_C2
      00000089H   SFRSYM    DATA     BYTE      TMOD
      00000088H   SFRSYM    DATA     BYTE      TCON
      000000CFH   SFRSYM    DATA     BYTE      SPROG_ADDR_L
      000000BBH   SFRSYM    DATA     BYTE      SCI_C3
      000000E8H.0 SFRSYM    DATA     BIT       IIC_RECOV
      000000E5H   SFRSYM    DATA     BYTE      IICCON
      000000E8H.4 SFRSYM    DATA     BIT       IIC_AD
      000000FDH   SFRSYM    DATA     BYTE      PCD_CFG2
      000000FFH   SFRSYM    DATA     BYTE      PCD_CFG3
      000000E8H.3 SFRSYM    DATA     BIT       IIC_BF
      00000088H.1 SFRSYM    DATA     BIT       IE0
      00000088H.3 SFRSYM    DATA     BIT       IE1
      000000F8H.0 SFRSYM    DATA     BIT       PA0
      000000F0H   SFRSYM    DATA     BYTE      B
      00000080H.0 SFRSYM    DATA     BIT       PB0
      000000F8H.1 SFRSYM    DATA     BIT       PA1
      000000D2H   SFRSYM    DATA     BYTE      SPROG_CMD
      00000090H.0 SFRSYM    DATA     BIT       PC0
      00000080H.1 SFRSYM    DATA     BIT       PB1
      000000F8H.2 SFRSYM    DATA     BIT       PA2
      00000090H.1 SFRSYM    DATA     BIT       PC1
      00000080H.2 SFRSYM    DATA     BIT       PB2
      000000F8H.3 SFRSYM    DATA     BIT       PA3
      00000098H   SFRSYM    DATA     BYTE      SCI_S1
      000000B0H.0 SFRSYM    DATA     BIT       PE0
      00000090H.2 SFRSYM    DATA     BIT       PC2
      00000080H.3 SFRSYM    DATA     BIT       PB3
      000000BCH   SFRSYM    DATA     BYTE      SCI_S2
      000000E8H.7 SFRSYM    DATA     BIT       IIC_START
      000000C0H.0 SFRSYM    DATA     BIT       PF0
LX51 LINKER/LOCATER V4.66.100.0                                                       04/23/2024  19:14:21  PAGE 84


      000000B0H.1 SFRSYM    DATA     BIT       PE1
      00000090H.3 SFRSYM    DATA     BIT       PC3
      00000080H.4 SFRSYM    DATA     BIT       PB4
      000000C8H.0 SFRSYM    DATA     BIT       PG0
      000000C0H.1 SFRSYM    DATA     BIT       PF1
      000000B0H.2 SFRSYM    DATA     BIT       PE2
      00000090H.4 SFRSYM    DATA     BIT       PC4
      00000080H.5 SFRSYM    DATA     BIT       PB5
      000000F9H   SFRSYM    DATA     BYTE      PCD_BUF1
      000000E0H   SFRSYM    DATA     BYTE      ACC
      000000D8H.0 SFRSYM    DATA     BIT       PH0
      000000C8H.1 SFRSYM    DATA     BIT       PG1
      000000C0H.2 SFRSYM    DATA     BIT       PF2
      000000B0H.3 SFRSYM    DATA     BIT       PE3
      00000090H.5 SFRSYM    DATA     BIT       PC5
      00000080H.6 SFRSYM    DATA     BIT       PB6
      000000FAH   SFRSYM    DATA     BYTE      PCD_BUF2
      000000D8H.1 SFRSYM    DATA     BIT       PH1
      000000C8H.2 SFRSYM    DATA     BIT       PG2
      000000C0H.3 SFRSYM    DATA     BIT       PF3
      000000B0H.4 SFRSYM    DATA     BIT       PE4
      000000A8H.1 SFRSYM    DATA     BIT       ET0
      00000090H.6 SFRSYM    DATA     BIT       PC6
      00000080H.7 SFRSYM    DATA     BIT       PB7
      000000D8H.2 SFRSYM    DATA     BIT       PH2
      000000C8H.3 SFRSYM    DATA     BIT       PG3
      000000C0H.4 SFRSYM    DATA     BIT       PF4
      000000B0H.5 SFRSYM    DATA     BIT       PE5
      000000A8H.3 SFRSYM    DATA     BIT       ET1
      00000090H.7 SFRSYM    DATA     BIT       PC7
      00000088H.5 SFRSYM    DATA     BIT       TF0
      000000D8H.3 SFRSYM    DATA     BIT       PH3
      000000C0H.5 SFRSYM    DATA     BIT       PF5
      000000B0H.6 SFRSYM    DATA     BIT       PE6
      00000088H.7 SFRSYM    DATA     BIT       TF1
      000000C9H   SFRSYM    DATA     BYTE      CSD_START
      000000D8H.4 SFRSYM    DATA     BIT       PH4
      000000C0H.6 SFRSYM    DATA     BIT       PF6
      000000B0H.7 SFRSYM    DATA     BIT       PE7
      0000008CH   SFRSYM    DATA     BYTE      TH0
      000000D8H.5 SFRSYM    DATA     BIT       PH5
      000000C0H.7 SFRSYM    DATA     BIT       PF7
      000000A8H.0 SFRSYM    DATA     BIT       EX0
      0000008DH   SFRSYM    DATA     BYTE      TH1
      000000D8H.6 SFRSYM    DATA     BIT       PH6
      000000A8H.2 SFRSYM    DATA     BIT       EX1
      000000D8H.7 SFRSYM    DATA     BIT       PH7
      000000D0H.0 SFRSYM    DATA     BIT       P
      000000B5H   SFRSYM    DATA     BYTE      SPI_CFG1
      000000BEH   SFRSYM    DATA     BYTE      SPI_STATE
      000000B6H   SFRSYM    DATA     BYTE      SPI_CFG2
      0000008AH   SFRSYM    DATA     BYTE      TL0
      000000DFH   SFRSYM    DATA     BYTE      UART0_STATE
      0000008BH   SFRSYM    DATA     BYTE      TL1
      000000DAH   SFRSYM    DATA     BYTE      UART1_STATE
      000000B8H.1 SFRSYM    DATA     BIT       PT0
      000000D0H.3 SFRSYM    DATA     BIT       RS0
      000000B8H.3 SFRSYM    DATA     BIT       PT1
      000000B1H   SFRSYM    DATA     BYTE      DP_CON
      000000D0H.4 SFRSYM    DATA     BIT       RS1
      00000088H.4 SFRSYM    DATA     BIT       TR0
      00000088H.6 SFRSYM    DATA     BIT       TR1
      000000B8H.0 SFRSYM    DATA     BIT       PX0
      000000D3H   SFRSYM    DATA     BYTE      SPROG_TIM
      00000098H.7 SFRSYM    DATA     BIT       SCI_TE
LX51 LINKER/LOCATER V4.66.100.0                                                       04/23/2024  19:14:21  PAGE 85


      00000098H.6 SFRSYM    DATA     BIT       SCI_TF
      000000B8H.2 SFRSYM    DATA     BIT       PX2
      00000097H   SFRSYM    DATA     BYTE      REG_DATA
      00000098H.5 SFRSYM    DATA     BIT       SCI_RI
      000000D4H   SFRSYM    DATA     BYTE      SPROG_RDATA
      00000096H   SFRSYM    DATA     BYTE      REG_ADDR
      000000F8H   SFRSYM    DATA     BYTE      DATAA
      00000083H   SFRSYM    DATA     BYTE      DPH
      00000080H   SFRSYM    DATA     BYTE      DATAB
      000000CBH   SFRSYM    DATA     BYTE      SNS_SCAN_CFG1
      00000090H   SFRSYM    DATA     BYTE      DATAC
      000000E8H.5 SFRSYM    DATA     BIT       IIC_RW
      000000CCH   SFRSYM    DATA     BYTE      SNS_SCAN_CFG2
      000000C5H   SFRSYM    DATA     BYTE      ADC_RDATAH
      000000DDH   SFRSYM    DATA     BYTE      UART0_CON1
      000000CDH   SFRSYM    DATA     BYTE      SNS_SCAN_CFG3
      000000B0H   SFRSYM    DATA     BYTE      DATAE
      00000082H   SFRSYM    DATA     BYTE      DPL
      00000098H.3 SFRSYM    DATA     BIT       SCI_RO
      000000DEH   SFRSYM    DATA     BYTE      UART0_CON2
      000000D7H   SFRSYM    DATA     BYTE      UART1_CON1
      000000C0H   SFRSYM    DATA     BYTE      DATAF
      000000D9H   SFRSYM    DATA     BYTE      UART1_CON2
      000000C8H   SFRSYM    DATA     BYTE      DATAG
      000000D8H   SFRSYM    DATA     BYTE      DATAH
      000000C6H   SFRSYM    DATA     BYTE      ADC_RDATAL
      00000092H   SFRSYM    DATA     BYTE      WDT_EN
      00000093H   SFRSYM    DATA     BYTE      TIMER2_CFG
      00000084H   SFRSYM    DATA     BYTE      TIMER3_CFG
      000000B4H   SFRSYM    DATA     BYTE      LED2_WIDTH
      000000E8H.1 SFRSYM    DATA     BIT       IIC_WCOL
      000000ADH   SFRSYM    DATA     BYTE      SYS_CLK_CFG
      000000C2H   SFRSYM    DATA     BYTE      SCI_INT_CLR
      000000D0H.5 SFRSYM    DATA     BIT       F0
      0000009CH   SFRSYM    DATA     BYTE      PWM0_H_H
      000000D0H.1 SFRSYM    DATA     BIT       F1
      000000A1H   SFRSYM    DATA     BYTE      PWM1_H_H
      000000A5H   SFRSYM    DATA     BYTE      PWM2_H_H
      000000AAH   SFRSYM    DATA     BYTE      PWM3_H_H
      0000009BH   SFRSYM    DATA     BYTE      PWM0_H_L
      0000009AH   SFRSYM    DATA     BYTE      PWM0_L_H
      000000D0H   SFRSYM    DATA     BYTE      PSW
      0000009FH   SFRSYM    DATA     BYTE      PWM1_H_L
      0000009EH   SFRSYM    DATA     BYTE      PWM1_L_H
      000000A4H   SFRSYM    DATA     BYTE      PWM2_H_L
      000000A3H   SFRSYM    DATA     BYTE      PWM2_L_H
      000000A9H   SFRSYM    DATA     BYTE      PWM3_H_L
      000000A7H   SFRSYM    DATA     BYTE      PWM3_L_H
      000000E8H.6 SFRSYM    DATA     BIT       IIC_STOP
      00000099H   SFRSYM    DATA     BYTE      PWM0_L_L

      01004C8CH   BLOCK     CODE     ---       LVL=0
      020001BEH   SYMBOL    XDATA    BYTE      SCAN_NUM
      01004C91H   BLOCK     CODE     NEAR LAB  LVL=1
      020001BFH   SYMBOL    XDATA    BYTE      i
      020001C0H   SYMBOL    XDATA    BYTE      j
      020001C1H   SYMBOL    XDATA    DWORD     DatRS
      ---         BLOCKEND  ---      ---       LVL=1
      01004C8CH   LINE      CODE     ---       #14
      01004C91H   LINE      CODE     ---       #15
      01004C91H   LINE      CODE     ---       #16
      01004C94H   LINE      CODE     ---       #17
      01004C96H   LINE      CODE     ---       #18
      01004C9EH   LINE      CODE     ---       #20
      01004CA7H   LINE      CODE     ---       #21
LX51 LINKER/LOCATER V4.66.100.0                                                       04/23/2024  19:14:21  PAGE 86


      01004CBDH   LINE      CODE     ---       #23
      01004CD1H   LINE      CODE     ---       #25
      01004CDBH   LINE      CODE     ---       #27
      01004CFBH   LINE      CODE     ---       #28
      01004D03H   LINE      CODE     ---       #30
      01004D08H   LINE      CODE     ---       #32
      01004D0DH   LINE      CODE     ---       #33
      ---         BLOCKEND  ---      ---       LVL=0

      01004575H   BLOCK     CODE     ---       LVL=0
      01004575H   LINE      CODE     ---       #36
      01004575H   LINE      CODE     ---       #37
      01004575H   LINE      CODE     ---       #63
      0100457FH   LINE      CODE     ---       #65
      01004587H   LINE      CODE     ---       #66
      010045A0H   LINE      CODE     ---       #68
      010045A8H   LINE      CODE     ---       #69
      010045C1H   LINE      CODE     ---       #71
      010045C9H   LINE      CODE     ---       #72
      010045E2H   LINE      CODE     ---       #74
      010045EAH   LINE      CODE     ---       #75
      01004603H   LINE      CODE     ---       #77
      0100460BH   LINE      CODE     ---       #78
      01004624H   LINE      CODE     ---       #80
      0100462CH   LINE      CODE     ---       #81
      01004645H   LINE      CODE     ---       #83
      0100464DH   LINE      CODE     ---       #84
      01004666H   LINE      CODE     ---       #86
      0100466EH   LINE      CODE     ---       #87
      01004687H   LINE      CODE     ---       #89
      0100468FH   LINE      CODE     ---       #90
      010046A9H   LINE      CODE     ---       #92
      010046B1H   LINE      CODE     ---       #93
      010046CBH   LINE      CODE     ---       #95
      010046D3H   LINE      CODE     ---       #96
      010046EDH   LINE      CODE     ---       #98
      010046F5H   LINE      CODE     ---       #99
      0100470FH   LINE      CODE     ---       #101
      01004717H   LINE      CODE     ---       #102
      01004731H   LINE      CODE     ---       #111
      ---         BLOCKEND  ---      ---       LVL=0

      01003B9AH   BLOCK     CODE     ---       LVL=0
      01003B9AH   LINE      CODE     ---       #115
      01003B9AH   LINE      CODE     ---       #116
      01003B9AH   LINE      CODE     ---       #117
      01003B9DH   LINE      CODE     ---       #119
      01003BC0H   LINE      CODE     ---       #121
      01003BD8H   LINE      CODE     ---       #122
      01003BDCH   LINE      CODE     ---       #123
      01003BE1H   LINE      CODE     ---       #125
      01003BE1H   LINE      CODE     ---       #127
      01003BEAH   LINE      CODE     ---       #128
      01003BEDH   LINE      CODE     ---       #132
      01003BF8H   LINE      CODE     ---       #133
      01003C11H   LINE      CODE     ---       #135
      01003C16H   LINE      CODE     ---       #137
      01003C17H   LINE      CODE     ---       #140
      01003C31H   LINE      CODE     ---       #142
      01003C37H   LINE      CODE     ---       #143
      01003C3BH   LINE      CODE     ---       #144
      01003C3CH   LINE      CODE     ---       #146
      01003C59H   LINE      CODE     ---       #148
      01003C5FH   LINE      CODE     ---       #149
      01003C63H   LINE      CODE     ---       #150
LX51 LINKER/LOCATER V4.66.100.0                                                       04/23/2024  19:14:21  PAGE 87


      01003C63H   LINE      CODE     ---       #152
      01003C63H   LINE      CODE     ---       #154
      01003C64H   LINE      CODE     ---       #155
      01003C64H   LINE      CODE     ---       #157
      01003C98H   LINE      CODE     ---       #160
      01003C98H   LINE      CODE     ---       #162
      01003CD0H   LINE      CODE     ---       #164
      01003CDCH   LINE      CODE     ---       #165
      01003D3FH   LINE      CODE     ---       #166
      01003D3FH   LINE      CODE     ---       #167
      01003D3FH   LINE      CODE     ---       #168
      01003D53H   LINE      CODE     ---       #169
      01003D56H   LINE      CODE     ---       #171
      01003D56H   LINE      CODE     ---       #172
      01003D6AH   LINE      CODE     ---       #173
      01003D6DH   LINE      CODE     ---       #175
      01003D6DH   LINE      CODE     ---       #176
      01003D81H   LINE      CODE     ---       #177
      01003D84H   LINE      CODE     ---       #179
      01003D84H   LINE      CODE     ---       #180
      01003D98H   LINE      CODE     ---       #181
      01003D9BH   LINE      CODE     ---       #183
      01003D9BH   LINE      CODE     ---       #184
      01003DAFH   LINE      CODE     ---       #185
      01003DB2H   LINE      CODE     ---       #187
      01003DB2H   LINE      CODE     ---       #188
      01003DC6H   LINE      CODE     ---       #189
      01003DC9H   LINE      CODE     ---       #191
      01003DC9H   LINE      CODE     ---       #192
      01003DDDH   LINE      CODE     ---       #193
      01003DE0H   LINE      CODE     ---       #195
      01003DE0H   LINE      CODE     ---       #196
      01003DF4H   LINE      CODE     ---       #197
      01003DF6H   LINE      CODE     ---       #199
      01003DF6H   LINE      CODE     ---       #200
      01003E0AH   LINE      CODE     ---       #201
      01003E0CH   LINE      CODE     ---       #203
      01003E0CH   LINE      CODE     ---       #204
      01003E20H   LINE      CODE     ---       #205
      01003E22H   LINE      CODE     ---       #207
      01003E22H   LINE      CODE     ---       #208
      01003E36H   LINE      CODE     ---       #209
      01003E38H   LINE      CODE     ---       #211
      01003E38H   LINE      CODE     ---       #212
      01003E4CH   LINE      CODE     ---       #213
      01003E4EH   LINE      CODE     ---       #215
      01003E4EH   LINE      CODE     ---       #216
      01003E62H   LINE      CODE     ---       #217
      01003E62H   LINE      CODE     ---       #221
      01003E62H   LINE      CODE     ---       #222
      01003E62H   LINE      CODE     ---       #223
      01003E62H   LINE      CODE     ---       #224
      01003E62H   LINE      CODE     ---       #225
      01003E62H   LINE      CODE     ---       #227
      01003E62H   LINE      CODE     ---       #231
      01003E62H   LINE      CODE     ---       #235
      01003E76H   LINE      CODE     ---       #236
      01003E7BH   LINE      CODE     ---       #237
      01003E7DH   LINE      CODE     ---       #238
      01003E84H   LINE      CODE     ---       #239
      01003E84H   LINE      CODE     ---       #241
      ---         BLOCKEND  ---      ---       LVL=0

      ---         MODULE    ---      ---       LED
      02000205H   PUBLIC    XDATA    ---       m_LedData
LX51 LINKER/LOCATER V4.66.100.0                                                       04/23/2024  19:14:21  PAGE 88


      01000096H   PUBLIC    CODE     ---       _Led_100usPool
      0100516FH   PUBLIC    CODE     ---       Led_All_Close
      010052BFH   PUBLIC    CODE     ---       Led_init
      000000BFH   SFRSYM    DATA     BYTE      SPI_SPID
      0000009DH   SFRSYM    DATA     BYTE      PWM1_L_L
      000000AEH   SFRSYM    DATA     BYTE      INT_PE_STAT
      000000A2H   SFRSYM    DATA     BYTE      PWM2_L_L
      000000C3H   SFRSYM    DATA     BYTE      ADC_SCAN_CFG
      000000A6H   SFRSYM    DATA     BYTE      PWM3_L_L
      000000A0H   SFRSYM    DATA     BYTE      P2_XH
      000000D0H.6 SFRSYM    DATA     BIT       AC
      000000BDH   SFRSYM    DATA     BYTE      SCI_D
      000000EAH   SFRSYM    DATA     BYTE      TRISA
      00000098H.1 SFRSYM    DATA     BIT       SCI_F
      000000E8H.2 SFRSYM    DATA     BIT       IIC_ACK
      000000A8H.7 SFRSYM    DATA     BIT       EA
      000000EBH   SFRSYM    DATA     BYTE      TRISB
      000000ECH   SFRSYM    DATA     BYTE      TRISC
      000000B9H   SFRSYM    DATA     BYTE      DP_CON1
      00000091H   SFRSYM    DATA     BYTE      WDT_CTRL
      00000098H.4 SFRSYM    DATA     BIT       SCI_I
      000000FBH   SFRSYM    DATA     BYTE      PCD_CFG
      000000EEH   SFRSYM    DATA     BYTE      TRISE
      000000D1H   SFRSYM    DATA     BYTE      SPROG_DATA
      000000B3H   SFRSYM    DATA     BYTE      SCAN_WIDTH
      000000EFH   SFRSYM    DATA     BYTE      TRISF
      000000F2H   SFRSYM    DATA     BYTE      TRISG
      000000ACH   SFRSYM    DATA     BYTE      CSD_RAWDATAH
      000000F7H   SFRSYM    DATA     BYTE      TRISH
      000000FCH   SFRSYM    DATA     BYTE      PCD_CMD
      000000A8H   SFRSYM    DATA     BYTE      IEN0
      00000098H.2 SFRSYM    DATA     BIT       SCI_N
      000000E6H   SFRSYM    DATA     BYTE      IEN1
      000000E7H   SFRSYM    DATA     BYTE      IEN2
      000000ABH   SFRSYM    DATA     BYTE      CSD_RAWDATAL
      00000098H.0 SFRSYM    DATA     BIT       SCI_P
      000000FEH   SFRSYM    DATA     BYTE      PCD_BIT_ER
      000000E9H   SFRSYM    DATA     BYTE      IICBUFFER
      000000E8H   SFRSYM    DATA     BYTE      IICSTAT
      000000B8H   SFRSYM    DATA     BYTE      IPL0
      000000F6H   SFRSYM    DATA     BYTE      IPL1
      000000AFH   SFRSYM    DATA     BYTE      SCAN_START
      000000F4H   SFRSYM    DATA     BYTE      IPL2
      0000008EH   SFRSYM    DATA     BYTE      SOFT_RST
      000000C4H   SFRSYM    DATA     BYTE      ADCCKC
      000000B2H   SFRSYM    DATA     BYTE      DP_MODE
      000000D0H.7 SFRSYM    DATA     BIT       CY
      000000D5H   SFRSYM    DATA     BYTE      INT_POBO_STAT
      000000E3H   SFRSYM    DATA     BYTE      IICADD
      000000DCH   SFRSYM    DATA     BYTE      UART0_BDL
      000000C1H   SFRSYM    DATA     BYTE      ADC_SPT
      000000D6H   SFRSYM    DATA     BYTE      UART1_BDL
      00000081H   SFRSYM    DATA     BYTE      SP
      000000D0H.2 SFRSYM    DATA     BIT       OV
      000000C7H   SFRSYM    DATA     BYTE      EXINT_STAT
      00000094H   SFRSYM    DATA     BYTE      TIMER2_SET_H
      000000E2H   SFRSYM    DATA     BYTE      UART0_BUF
      00000085H   SFRSYM    DATA     BYTE      TIMER3_SET_H
      000000DBH   SFRSYM    DATA     BYTE      UART1_BUF
      000000CAH   SFRSYM    DATA     BYTE      PULL_I_SEL
      000000F1H   SFRSYM    DATA     BYTE      IRCON1
      000000E1H   SFRSYM    DATA     BYTE      IRCON2
      00000095H   SFRSYM    DATA     BYTE      TIMER2_SET_L
      00000086H   SFRSYM    DATA     BYTE      TIMER3_SET_L
      00000087H   SFRSYM    DATA     BYTE      PCON
LX51 LINKER/LOCATER V4.66.100.0                                                       04/23/2024  19:14:21  PAGE 89


      000000CEH   SFRSYM    DATA     BYTE      SPROG_ADDR_H
      000000EDH   SFRSYM    DATA     BYTE      SCI_C1
      000000E4H   SFRSYM    DATA     BYTE      IICBUF
      000000BAH   SFRSYM    DATA     BYTE      SCI_C2
      00000089H   SFRSYM    DATA     BYTE      TMOD
      00000088H   SFRSYM    DATA     BYTE      TCON
      000000CFH   SFRSYM    DATA     BYTE      SPROG_ADDR_L
      000000BBH   SFRSYM    DATA     BYTE      SCI_C3
      000000E8H.0 SFRSYM    DATA     BIT       IIC_RECOV
      000000E5H   SFRSYM    DATA     BYTE      IICCON
      000000E8H.4 SFRSYM    DATA     BIT       IIC_AD
      000000FDH   SFRSYM    DATA     BYTE      PCD_CFG2
      000000FFH   SFRSYM    DATA     BYTE      PCD_CFG3
      000000E8H.3 SFRSYM    DATA     BIT       IIC_BF
      00000088H.1 SFRSYM    DATA     BIT       IE0
      00000088H.3 SFRSYM    DATA     BIT       IE1
      000000F8H.0 SFRSYM    DATA     BIT       PA0
      000000F0H   SFRSYM    DATA     BYTE      B
      00000080H.0 SFRSYM    DATA     BIT       PB0
      000000F8H.1 SFRSYM    DATA     BIT       PA1
      000000D2H   SFRSYM    DATA     BYTE      SPROG_CMD
      00000090H.0 SFRSYM    DATA     BIT       PC0
      00000080H.1 SFRSYM    DATA     BIT       PB1
      000000F8H.2 SFRSYM    DATA     BIT       PA2
      00000090H.1 SFRSYM    DATA     BIT       PC1
      00000080H.2 SFRSYM    DATA     BIT       PB2
      000000F8H.3 SFRSYM    DATA     BIT       PA3
      00000098H   SFRSYM    DATA     BYTE      SCI_S1
      000000B0H.0 SFRSYM    DATA     BIT       PE0
      00000090H.2 SFRSYM    DATA     BIT       PC2
      00000080H.3 SFRSYM    DATA     BIT       PB3
      000000BCH   SFRSYM    DATA     BYTE      SCI_S2
      000000E8H.7 SFRSYM    DATA     BIT       IIC_START
      000000C0H.0 SFRSYM    DATA     BIT       PF0
      000000B0H.1 SFRSYM    DATA     BIT       PE1
      00000090H.3 SFRSYM    DATA     BIT       PC3
      00000080H.4 SFRSYM    DATA     BIT       PB4
      000000C8H.0 SFRSYM    DATA     BIT       PG0
      000000C0H.1 SFRSYM    DATA     BIT       PF1
      000000B0H.2 SFRSYM    DATA     BIT       PE2
      00000090H.4 SFRSYM    DATA     BIT       PC4
      00000080H.5 SFRSYM    DATA     BIT       PB5
      000000F9H   SFRSYM    DATA     BYTE      PCD_BUF1
      000000E0H   SFRSYM    DATA     BYTE      ACC
      000000D8H.0 SFRSYM    DATA     BIT       PH0
      000000C8H.1 SFRSYM    DATA     BIT       PG1
      000000C0H.2 SFRSYM    DATA     BIT       PF2
      000000B0H.3 SFRSYM    DATA     BIT       PE3
      00000090H.5 SFRSYM    DATA     BIT       PC5
      00000080H.6 SFRSYM    DATA     BIT       PB6
      000000FAH   SFRSYM    DATA     BYTE      PCD_BUF2
      000000D8H.1 SFRSYM    DATA     BIT       PH1
      000000C8H.2 SFRSYM    DATA     BIT       PG2
      000000C0H.3 SFRSYM    DATA     BIT       PF3
      000000B0H.4 SFRSYM    DATA     BIT       PE4
      000000A8H.1 SFRSYM    DATA     BIT       ET0
      00000090H.6 SFRSYM    DATA     BIT       PC6
      00000080H.7 SFRSYM    DATA     BIT       PB7
      000000D8H.2 SFRSYM    DATA     BIT       PH2
      000000C8H.3 SFRSYM    DATA     BIT       PG3
      000000C0H.4 SFRSYM    DATA     BIT       PF4
      000000B0H.5 SFRSYM    DATA     BIT       PE5
      000000A8H.3 SFRSYM    DATA     BIT       ET1
      00000090H.7 SFRSYM    DATA     BIT       PC7
      00000088H.5 SFRSYM    DATA     BIT       TF0
LX51 LINKER/LOCATER V4.66.100.0                                                       04/23/2024  19:14:21  PAGE 90


      000000D8H.3 SFRSYM    DATA     BIT       PH3
      000000C0H.5 SFRSYM    DATA     BIT       PF5
      000000B0H.6 SFRSYM    DATA     BIT       PE6
      00000088H.7 SFRSYM    DATA     BIT       TF1
      000000C9H   SFRSYM    DATA     BYTE      CSD_START
      000000D8H.4 SFRSYM    DATA     BIT       PH4
      000000C0H.6 SFRSYM    DATA     BIT       PF6
      000000B0H.7 SFRSYM    DATA     BIT       PE7
      0000008CH   SFRSYM    DATA     BYTE      TH0
      000000D8H.5 SFRSYM    DATA     BIT       PH5
      000000C0H.7 SFRSYM    DATA     BIT       PF7
      000000A8H.0 SFRSYM    DATA     BIT       EX0
      0000008DH   SFRSYM    DATA     BYTE      TH1
      000000D8H.6 SFRSYM    DATA     BIT       PH6
      000000A8H.2 SFRSYM    DATA     BIT       EX1
      000000D8H.7 SFRSYM    DATA     BIT       PH7
      000000D0H.0 SFRSYM    DATA     BIT       P
      000000B5H   SFRSYM    DATA     BYTE      SPI_CFG1
      000000BEH   SFRSYM    DATA     BYTE      SPI_STATE
      000000B6H   SFRSYM    DATA     BYTE      SPI_CFG2
      0000008AH   SFRSYM    DATA     BYTE      TL0
      000000DFH   SFRSYM    DATA     BYTE      UART0_STATE
      0000008BH   SFRSYM    DATA     BYTE      TL1
      000000DAH   SFRSYM    DATA     BYTE      UART1_STATE
      000000B8H.1 SFRSYM    DATA     BIT       PT0
      000000D0H.3 SFRSYM    DATA     BIT       RS0
      000000B8H.3 SFRSYM    DATA     BIT       PT1
      000000B1H   SFRSYM    DATA     BYTE      DP_CON
      000000D0H.4 SFRSYM    DATA     BIT       RS1
      00000088H.4 SFRSYM    DATA     BIT       TR0
      00000088H.6 SFRSYM    DATA     BIT       TR1
      000000B8H.0 SFRSYM    DATA     BIT       PX0
      000000D3H   SFRSYM    DATA     BYTE      SPROG_TIM
      00000098H.7 SFRSYM    DATA     BIT       SCI_TE
      00000098H.6 SFRSYM    DATA     BIT       SCI_TF
      000000B8H.2 SFRSYM    DATA     BIT       PX2
      00000097H   SFRSYM    DATA     BYTE      REG_DATA
      00000098H.5 SFRSYM    DATA     BIT       SCI_RI
      000000D4H   SFRSYM    DATA     BYTE      SPROG_RDATA
      00000096H   SFRSYM    DATA     BYTE      REG_ADDR
      000000F8H   SFRSYM    DATA     BYTE      DATAA
      00000083H   SFRSYM    DATA     BYTE      DPH
      00000080H   SFRSYM    DATA     BYTE      DATAB
      000000CBH   SFRSYM    DATA     BYTE      SNS_SCAN_CFG1
      00000090H   SFRSYM    DATA     BYTE      DATAC
      000000E8H.5 SFRSYM    DATA     BIT       IIC_RW
      000000CCH   SFRSYM    DATA     BYTE      SNS_SCAN_CFG2
      000000C5H   SFRSYM    DATA     BYTE      ADC_RDATAH
      000000DDH   SFRSYM    DATA     BYTE      UART0_CON1
      000000CDH   SFRSYM    DATA     BYTE      SNS_SCAN_CFG3
      000000B0H   SFRSYM    DATA     BYTE      DATAE
      00000082H   SFRSYM    DATA     BYTE      DPL
      00000098H.3 SFRSYM    DATA     BIT       SCI_RO
      000000DEH   SFRSYM    DATA     BYTE      UART0_CON2
      000000D7H   SFRSYM    DATA     BYTE      UART1_CON1
      000000C0H   SFRSYM    DATA     BYTE      DATAF
      000000D9H   SFRSYM    DATA     BYTE      UART1_CON2
      000000C8H   SFRSYM    DATA     BYTE      DATAG
      000000D8H   SFRSYM    DATA     BYTE      DATAH
      000000C6H   SFRSYM    DATA     BYTE      ADC_RDATAL
      00000092H   SFRSYM    DATA     BYTE      WDT_EN
      00000093H   SFRSYM    DATA     BYTE      TIMER2_CFG
      00000084H   SFRSYM    DATA     BYTE      TIMER3_CFG
      000000B4H   SFRSYM    DATA     BYTE      LED2_WIDTH
      000000E8H.1 SFRSYM    DATA     BIT       IIC_WCOL
LX51 LINKER/LOCATER V4.66.100.0                                                       04/23/2024  19:14:21  PAGE 91


      000000ADH   SFRSYM    DATA     BYTE      SYS_CLK_CFG
      000000C2H   SFRSYM    DATA     BYTE      SCI_INT_CLR
      000000D0H.5 SFRSYM    DATA     BIT       F0
      0000009CH   SFRSYM    DATA     BYTE      PWM0_H_H
      000000D0H.1 SFRSYM    DATA     BIT       F1
      000000A1H   SFRSYM    DATA     BYTE      PWM1_H_H
      000000A5H   SFRSYM    DATA     BYTE      PWM2_H_H
      000000AAH   SFRSYM    DATA     BYTE      PWM3_H_H
      0000009BH   SFRSYM    DATA     BYTE      PWM0_H_L
      0000009AH   SFRSYM    DATA     BYTE      PWM0_L_H
      000000D0H   SFRSYM    DATA     BYTE      PSW
      0000009FH   SFRSYM    DATA     BYTE      PWM1_H_L
      0000009EH   SFRSYM    DATA     BYTE      PWM1_L_H
      000000A4H   SFRSYM    DATA     BYTE      PWM2_H_L
      000000A3H   SFRSYM    DATA     BYTE      PWM2_L_H
      000000A9H   SFRSYM    DATA     BYTE      PWM3_H_L
      000000A7H   SFRSYM    DATA     BYTE      PWM3_L_H
      000000E8H.6 SFRSYM    DATA     BIT       IIC_STOP
      00000099H   SFRSYM    DATA     BYTE      PWM0_L_L

      010052BFH   BLOCK     CODE     ---       LVL=0
      010052BFH   LINE      CODE     ---       #23
      010052BFH   LINE      CODE     ---       #25
      010052CEH   LINE      CODE     ---       #27
      010052DDH   LINE      CODE     ---       #32
      ---         BLOCKEND  ---      ---       LVL=0

      0100516FH   BLOCK     CODE     ---       LVL=0
      0100516FH   LINE      CODE     ---       #63
      0100516FH   LINE      CODE     ---       #64
      01005171H   LINE      CODE     ---       #65
      01005173H   LINE      CODE     ---       #67
      01005175H   LINE      CODE     ---       #68
      01005177H   LINE      CODE     ---       #69
      01005179H   LINE      CODE     ---       #70
      0100517BH   LINE      CODE     ---       #71
      0100517DH   LINE      CODE     ---       #72
      0100517FH   LINE      CODE     ---       #73
      01005181H   LINE      CODE     ---       #74
      01005183H   LINE      CODE     ---       #75
      01005185H   LINE      CODE     ---       #76
      01005187H   LINE      CODE     ---       #77
      01005189H   LINE      CODE     ---       #78
      0100518BH   LINE      CODE     ---       #79
      0100518DH   LINE      CODE     ---       #80
      0100518FH   LINE      CODE     ---       #82
      010051A2H   LINE      CODE     ---       #84
      010051A5H   LINE      CODE     ---       #88
      ---         BLOCKEND  ---      ---       LVL=0

      01000096H   BLOCK     CODE     ---       LVL=0
      020001CFH   SYMBOL    XDATA    BYTE      area
      020001D0H   SYMBOL    XDATA    BYTE      brightness
      01000096H   LINE      CODE     ---       #711
      0100009EH   LINE      CODE     ---       #712
      010000A7H   LINE      CODE     ---       #713
      010000A9H   LINE      CODE     ---       #714
      010000ABH   LINE      CODE     ---       #715
      010000B1H   LINE      CODE     ---       #716
      010000B1H   LINE      CODE     ---       #718
      010000B4H   LINE      CODE     ---       #720
      010000BDH   LINE      CODE     ---       #721
      010000BFH   LINE      CODE     ---       #722
      010000C1H   LINE      CODE     ---       #724
      010000C3H   LINE      CODE     ---       #725
LX51 LINKER/LOCATER V4.66.100.0                                                       04/23/2024  19:14:21  PAGE 92


      010000C5H   LINE      CODE     ---       #726
      010000C7H   LINE      CODE     ---       #727
      010000C9H   LINE      CODE     ---       #728
      010000CBH   LINE      CODE     ---       #729
      010000CDH   LINE      CODE     ---       #730
      010000CFH   LINE      CODE     ---       #731
      010000D1H   LINE      CODE     ---       #732
      010000D3H   LINE      CODE     ---       #733
      010000D5H   LINE      CODE     ---       #734
      010000D7H   LINE      CODE     ---       #735
      010000D9H   LINE      CODE     ---       #736
      010000DBH   LINE      CODE     ---       #737
      010000DDH   LINE      CODE     ---       #739
      010000EEH   LINE      CODE     ---       #741
      010000F8H   LINE      CODE     ---       #742
      01000122H   LINE      CODE     ---       #743
      01000155H   LINE      CODE     ---       #744
      0100018EH   LINE      CODE     ---       #745
      010001C7H   LINE      CODE     ---       #746
      01000201H   LINE      CODE     ---       #747
      0100023AH   LINE      CODE     ---       #748
      01000273H   LINE      CODE     ---       #749
      010002ACH   LINE      CODE     ---       #750
      010002D9H   LINE      CODE     ---       #751
      01000308H   LINE      CODE     ---       #752
      01000339H   LINE      CODE     ---       #753
      0100033BH   LINE      CODE     ---       #754
      01000342H   LINE      CODE     ---       #755
      01000345H   LINE      CODE     ---       #756
      01000345H   LINE      CODE     ---       #758
      01000348H   LINE      CODE     ---       #760
      0100034BH   LINE      CODE     ---       #762
      01000356H   LINE      CODE     ---       #763
      01000358H   LINE      CODE     ---       #764
      0100035AH   LINE      CODE     ---       #766
      0100035CH   LINE      CODE     ---       #767
      0100035EH   LINE      CODE     ---       #768
      01000360H   LINE      CODE     ---       #769
      01000362H   LINE      CODE     ---       #770
      01000364H   LINE      CODE     ---       #771
      01000366H   LINE      CODE     ---       #772
      01000368H   LINE      CODE     ---       #773
      0100036AH   LINE      CODE     ---       #774
      0100036CH   LINE      CODE     ---       #775
      0100036EH   LINE      CODE     ---       #776
      01000370H   LINE      CODE     ---       #777
      01000372H   LINE      CODE     ---       #778
      01000374H   LINE      CODE     ---       #779
      01000376H   LINE      CODE     ---       #781
      01000387H   LINE      CODE     ---       #783
      01000391H   LINE      CODE     ---       #784
      010003BEH   LINE      CODE     ---       #785
      010003F4H   LINE      CODE     ---       #786
      01000430H   LINE      CODE     ---       #787
      0100046CH   LINE      CODE     ---       #788
      010004A9H   LINE      CODE     ---       #789
      010004E5H   LINE      CODE     ---       #790
      01000521H   LINE      CODE     ---       #791
      0100055DH   LINE      CODE     ---       #792
      0100058DH   LINE      CODE     ---       #793
      010005BFH   LINE      CODE     ---       #794
      010005F3H   LINE      CODE     ---       #795
      010005F3H   LINE      CODE     ---       #799
      010005F6H   LINE      CODE     ---       #800
      010005F9H   LINE      CODE     ---       #802
LX51 LINKER/LOCATER V4.66.100.0                                                       04/23/2024  19:14:21  PAGE 93


      01000604H   LINE      CODE     ---       #803
      01000606H   LINE      CODE     ---       #804
      01000608H   LINE      CODE     ---       #806
      0100060AH   LINE      CODE     ---       #807
      0100060CH   LINE      CODE     ---       #808
      0100060EH   LINE      CODE     ---       #809
      01000610H   LINE      CODE     ---       #810
      01000612H   LINE      CODE     ---       #811
      01000614H   LINE      CODE     ---       #812
      01000616H   LINE      CODE     ---       #813
      01000618H   LINE      CODE     ---       #814
      0100061AH   LINE      CODE     ---       #815
      0100061CH   LINE      CODE     ---       #816
      0100061EH   LINE      CODE     ---       #817
      01000620H   LINE      CODE     ---       #818
      01000622H   LINE      CODE     ---       #819
      01000624H   LINE      CODE     ---       #821
      01000635H   LINE      CODE     ---       #823
      0100063FH   LINE      CODE     ---       #824
      0100066EH   LINE      CODE     ---       #825
      010006A6H   LINE      CODE     ---       #826
      010006E4H   LINE      CODE     ---       #827
      01000722H   LINE      CODE     ---       #828
      01000761H   LINE      CODE     ---       #829
      0100079FH   LINE      CODE     ---       #830
      010007DDH   LINE      CODE     ---       #831
      0100081BH   LINE      CODE     ---       #832
      0100084DH   LINE      CODE     ---       #833
      01000881H   LINE      CODE     ---       #834
      010008B7H   LINE      CODE     ---       #835
      010008EEH   LINE      CODE     ---       #837
      010008EEH   LINE      CODE     ---       #839
      010008F1H   LINE      CODE     ---       #840
      010008F4H   LINE      CODE     ---       #842
      010008FFH   LINE      CODE     ---       #843
      01000901H   LINE      CODE     ---       #844
      01000903H   LINE      CODE     ---       #846
      01000905H   LINE      CODE     ---       #847
      01000907H   LINE      CODE     ---       #848
      01000909H   LINE      CODE     ---       #849
      0100090BH   LINE      CODE     ---       #850
      0100090DH   LINE      CODE     ---       #851
      0100090FH   LINE      CODE     ---       #852
      01000911H   LINE      CODE     ---       #853
      01000913H   LINE      CODE     ---       #854
      01000915H   LINE      CODE     ---       #855
      01000917H   LINE      CODE     ---       #856
      01000919H   LINE      CODE     ---       #857
      0100091BH   LINE      CODE     ---       #858
      0100091DH   LINE      CODE     ---       #859
      0100091FH   LINE      CODE     ---       #861
      01000930H   LINE      CODE     ---       #863
      0100093AH   LINE      CODE     ---       #864
      0100096AH   LINE      CODE     ---       #865
      010009A3H   LINE      CODE     ---       #866
      010009E2H   LINE      CODE     ---       #867
      01000A21H   LINE      CODE     ---       #868
      01000A61H   LINE      CODE     ---       #869
      01000AA0H   LINE      CODE     ---       #870
      01000ADFH   LINE      CODE     ---       #871
      01000B1EH   LINE      CODE     ---       #872
      01000B51H   LINE      CODE     ---       #873
      01000B86H   LINE      CODE     ---       #874
      01000BBDH   LINE      CODE     ---       #875
      01000BF5H   LINE      CODE     ---       #876
LX51 LINKER/LOCATER V4.66.100.0                                                       04/23/2024  19:14:21  PAGE 94


      01000BF5H   LINE      CODE     ---       #879
      01000BF8H   LINE      CODE     ---       #880
      01000BFBH   LINE      CODE     ---       #882
      01000C06H   LINE      CODE     ---       #883
      01000C08H   LINE      CODE     ---       #884
      01000C0AH   LINE      CODE     ---       #886
      01000C0CH   LINE      CODE     ---       #887
      01000C0EH   LINE      CODE     ---       #888
      01000C10H   LINE      CODE     ---       #889
      01000C12H   LINE      CODE     ---       #890
      01000C14H   LINE      CODE     ---       #891
      01000C16H   LINE      CODE     ---       #892
      01000C18H   LINE      CODE     ---       #893
      01000C1AH   LINE      CODE     ---       #894
      01000C1CH   LINE      CODE     ---       #895
      01000C1EH   LINE      CODE     ---       #896
      01000C20H   LINE      CODE     ---       #897
      01000C22H   LINE      CODE     ---       #898
      01000C24H   LINE      CODE     ---       #899
      01000C26H   LINE      CODE     ---       #901
      01000C37H   LINE      CODE     ---       #903
      01000C41H   LINE      CODE     ---       #904
      01000C6FH   LINE      CODE     ---       #905
      01000CA6H   LINE      CODE     ---       #906
      01000CE3H   LINE      CODE     ---       #907
      01000D20H   LINE      CODE     ---       #908
      01000D5EH   LINE      CODE     ---       #909
      01000D9BH   LINE      CODE     ---       #910
      01000DD8H   LINE      CODE     ---       #911
      01000E15H   LINE      CODE     ---       #912
      01000E46H   LINE      CODE     ---       #913
      01000E79H   LINE      CODE     ---       #914
      01000EAEH   LINE      CODE     ---       #915
      01000EE4H   LINE      CODE     ---       #916
      01000EE4H   LINE      CODE     ---       #918
      01000EE7H   LINE      CODE     ---       #919
      01000EEAH   LINE      CODE     ---       #921
      01000EF5H   LINE      CODE     ---       #922
      01000EF7H   LINE      CODE     ---       #923
      01000EF9H   LINE      CODE     ---       #925
      01000EFBH   LINE      CODE     ---       #926
      01000EFDH   LINE      CODE     ---       #927
      01000EFFH   LINE      CODE     ---       #928
      01000F01H   LINE      CODE     ---       #929
      01000F03H   LINE      CODE     ---       #930
      01000F05H   LINE      CODE     ---       #931
      01000F07H   LINE      CODE     ---       #932
      01000F09H   LINE      CODE     ---       #933
      01000F0BH   LINE      CODE     ---       #934
      01000F0DH   LINE      CODE     ---       #935
      01000F0FH   LINE      CODE     ---       #936
      01000F11H   LINE      CODE     ---       #937
      01000F13H   LINE      CODE     ---       #938
      01000F15H   LINE      CODE     ---       #940
      01000F26H   LINE      CODE     ---       #942
      01000F30H   LINE      CODE     ---       #943
      01000F5FH   LINE      CODE     ---       #944
      01000F97H   LINE      CODE     ---       #945
      01000FD5H   LINE      CODE     ---       #946
      01001013H   LINE      CODE     ---       #947
      01001052H   LINE      CODE     ---       #948
      01001090H   LINE      CODE     ---       #949
      010010CEH   LINE      CODE     ---       #950
      0100110CH   LINE      CODE     ---       #951
      0100113EH   LINE      CODE     ---       #952
LX51 LINKER/LOCATER V4.66.100.0                                                       04/23/2024  19:14:21  PAGE 95


      01001172H   LINE      CODE     ---       #953
      010011A8H   LINE      CODE     ---       #954
      010011DFH   LINE      CODE     ---       #956
      010011DFH   LINE      CODE     ---       #959
      010011E2H   LINE      CODE     ---       #960
      010011E5H   LINE      CODE     ---       #962
      010011F0H   LINE      CODE     ---       #963
      010011F2H   LINE      CODE     ---       #964
      010011F4H   LINE      CODE     ---       #966
      010011F6H   LINE      CODE     ---       #967
      010011F8H   LINE      CODE     ---       #968
      010011FAH   LINE      CODE     ---       #969
      010011FCH   LINE      CODE     ---       #970
      010011FEH   LINE      CODE     ---       #971
      01001200H   LINE      CODE     ---       #972
      01001202H   LINE      CODE     ---       #973
      01001204H   LINE      CODE     ---       #974
      01001206H   LINE      CODE     ---       #975
      01001208H   LINE      CODE     ---       #976
      0100120AH   LINE      CODE     ---       #977
      0100120CH   LINE      CODE     ---       #978
      0100120EH   LINE      CODE     ---       #979
      01001210H   LINE      CODE     ---       #981
      01001221H   LINE      CODE     ---       #983
      0100122BH   LINE      CODE     ---       #984
      0100125BH   LINE      CODE     ---       #985
      01001294H   LINE      CODE     ---       #986
      010012D3H   LINE      CODE     ---       #987
      01001312H   LINE      CODE     ---       #988
      01001352H   LINE      CODE     ---       #989
      01001391H   LINE      CODE     ---       #990
      010013D0H   LINE      CODE     ---       #991
      0100140FH   LINE      CODE     ---       #992
      01001442H   LINE      CODE     ---       #993
      01001477H   LINE      CODE     ---       #994
      010014AEH   LINE      CODE     ---       #995
      010014E6H   LINE      CODE     ---       #996
      010014E6H   LINE      CODE     ---       #998
      010014E9H   LINE      CODE     ---       #999
      010014ECH   LINE      CODE     ---       #1002
      010014F7H   LINE      CODE     ---       #1003
      010014F9H   LINE      CODE     ---       #1004
      010014FBH   LINE      CODE     ---       #1006
      010014FDH   LINE      CODE     ---       #1007
      010014FFH   LINE      CODE     ---       #1008
      01001501H   LINE      CODE     ---       #1009
      01001503H   LINE      CODE     ---       #1010
      01001505H   LINE      CODE     ---       #1011
      01001507H   LINE      CODE     ---       #1012
      01001509H   LINE      CODE     ---       #1013
      0100150BH   LINE      CODE     ---       #1014
      0100150DH   LINE      CODE     ---       #1015
      0100150FH   LINE      CODE     ---       #1016
      01001511H   LINE      CODE     ---       #1017
      01001513H   LINE      CODE     ---       #1018
      01001515H   LINE      CODE     ---       #1019
      01001517H   LINE      CODE     ---       #1021
      01001528H   LINE      CODE     ---       #1023
      01001532H   LINE      CODE     ---       #1024
      01001563H   LINE      CODE     ---       #1025
      0100159DH   LINE      CODE     ---       #1026
      010015DDH   LINE      CODE     ---       #1027
      0100161DH   LINE      CODE     ---       #1028
      0100165EH   LINE      CODE     ---       #1029
      0100169EH   LINE      CODE     ---       #1030
LX51 LINKER/LOCATER V4.66.100.0                                                       04/23/2024  19:14:21  PAGE 96


      010016DEH   LINE      CODE     ---       #1031
      0100171EH   LINE      CODE     ---       #1032
      01001752H   LINE      CODE     ---       #1033
      01001788H   LINE      CODE     ---       #1034
      010017C0H   LINE      CODE     ---       #1035
      010017F9H   LINE      CODE     ---       #1036
      010017F9H   LINE      CODE     ---       #1039
      010017FCH   LINE      CODE     ---       #1040
      010017FFH   LINE      CODE     ---       #1042
      0100180AH   LINE      CODE     ---       #1043
      0100180CH   LINE      CODE     ---       #1044
      0100180EH   LINE      CODE     ---       #1046
      01001810H   LINE      CODE     ---       #1047
      01001812H   LINE      CODE     ---       #1048
      01001814H   LINE      CODE     ---       #1049
      01001816H   LINE      CODE     ---       #1050
      01001818H   LINE      CODE     ---       #1051
      0100181AH   LINE      CODE     ---       #1052
      0100181CH   LINE      CODE     ---       #1053
      0100181EH   LINE      CODE     ---       #1054
      01001820H   LINE      CODE     ---       #1055
      01001822H   LINE      CODE     ---       #1056
      01001824H   LINE      CODE     ---       #1057
      01001826H   LINE      CODE     ---       #1058
      01001828H   LINE      CODE     ---       #1059
      0100182AH   LINE      CODE     ---       #1061
      0100183BH   LINE      CODE     ---       #1063
      01001845H   LINE      CODE     ---       #1064
      0100186FH   LINE      CODE     ---       #1065
      010018A2H   LINE      CODE     ---       #1066
      010018DBH   LINE      CODE     ---       #1067
      01001914H   LINE      CODE     ---       #1068
      0100194EH   LINE      CODE     ---       #1069
      01001987H   LINE      CODE     ---       #1070
      010019C0H   LINE      CODE     ---       #1071
      010019F9H   LINE      CODE     ---       #1072
      01001A26H   LINE      CODE     ---       #1073
      01001A55H   LINE      CODE     ---       #1074
      01001A86H   LINE      CODE     ---       #1075
      01001AB8H   LINE      CODE     ---       #1076
      01001AB8H   LINE      CODE     ---       #1078
      01001ABBH   LINE      CODE     ---       #1079
      01001ABEH   LINE      CODE     ---       #1081
      01001AC9H   LINE      CODE     ---       #1082
      01001ACBH   LINE      CODE     ---       #1083
      01001ACDH   LINE      CODE     ---       #1085
      01001ACFH   LINE      CODE     ---       #1086
      01001AD1H   LINE      CODE     ---       #1087
      01001AD3H   LINE      CODE     ---       #1088
      01001AD5H   LINE      CODE     ---       #1089
      01001AD7H   LINE      CODE     ---       #1090
      01001AD9H   LINE      CODE     ---       #1091
      01001ADBH   LINE      CODE     ---       #1092
      01001ADDH   LINE      CODE     ---       #1093
      01001ADFH   LINE      CODE     ---       #1094
      01001AE1H   LINE      CODE     ---       #1095
      01001AE3H   LINE      CODE     ---       #1096
      01001AE5H   LINE      CODE     ---       #1097
      01001AE7H   LINE      CODE     ---       #1098
      01001AE9H   LINE      CODE     ---       #1100
      01001AFAH   LINE      CODE     ---       #1104
      01001B05H   LINE      CODE     ---       #1105
      01001B2FH   LINE      CODE     ---       #1106
      01001B65H   LINE      CODE     ---       #1107
      01001BA3H   LINE      CODE     ---       #1108
LX51 LINKER/LOCATER V4.66.100.0                                                       04/23/2024  19:14:21  PAGE 97


      01001BE2H   LINE      CODE     ---       #1109
      01001C20H   LINE      CODE     ---       #1110
      01001C5EH   LINE      CODE     ---       #1111
      01001C9DH   LINE      CODE     ---       #1112
      01001CDDH   LINE      CODE     ---       #1114
      01001CDDH   LINE      CODE     ---       #1116
      01001CE0H   LINE      CODE     ---       #1117
      01001CE3H   LINE      CODE     ---       #1119
      01001CEEH   LINE      CODE     ---       #1120
      01001CF0H   LINE      CODE     ---       #1121
      01001CF2H   LINE      CODE     ---       #1123
      01001CF4H   LINE      CODE     ---       #1124
      01001CF6H   LINE      CODE     ---       #1125
      01001CF8H   LINE      CODE     ---       #1126
      01001CFAH   LINE      CODE     ---       #1127
      01001CFCH   LINE      CODE     ---       #1128
      01001CFEH   LINE      CODE     ---       #1129
      01001D00H   LINE      CODE     ---       #1130
      01001D02H   LINE      CODE     ---       #1131
      01001D04H   LINE      CODE     ---       #1132
      01001D06H   LINE      CODE     ---       #1133
      01001D08H   LINE      CODE     ---       #1134
      01001D0AH   LINE      CODE     ---       #1135
      01001D0CH   LINE      CODE     ---       #1136
      01001D0EH   LINE      CODE     ---       #1138
      01001D1FH   LINE      CODE     ---       #1140
      01001D2AH   LINE      CODE     ---       #1141
      01001D54H   LINE      CODE     ---       #1142
      01001D8AH   LINE      CODE     ---       #1143
      01001DC8H   LINE      CODE     ---       #1144
      01001E07H   LINE      CODE     ---       #1145
      01001E45H   LINE      CODE     ---       #1146
      01001E83H   LINE      CODE     ---       #1147
      01001EC2H   LINE      CODE     ---       #1148
      01001F02H   LINE      CODE     ---       #1150
      01001F2FH   LINE      CODE     ---       #1151
      01001F61H   LINE      CODE     ---       #1152
      01001F61H   LINE      CODE     ---       #1155
      01001F64H   LINE      CODE     ---       #1156
      01001F67H   LINE      CODE     ---       #1158
      01001F72H   LINE      CODE     ---       #1159
      01001F74H   LINE      CODE     ---       #1160
      01001F76H   LINE      CODE     ---       #1162
      01001F78H   LINE      CODE     ---       #1163
      01001F7AH   LINE      CODE     ---       #1164
      01001F7CH   LINE      CODE     ---       #1165
      01001F7EH   LINE      CODE     ---       #1166
      01001F80H   LINE      CODE     ---       #1167
      01001F82H   LINE      CODE     ---       #1168
      01001F84H   LINE      CODE     ---       #1169
      01001F86H   LINE      CODE     ---       #1170
      01001F88H   LINE      CODE     ---       #1171
      01001F8AH   LINE      CODE     ---       #1172
      01001F8CH   LINE      CODE     ---       #1173
      01001F8EH   LINE      CODE     ---       #1174
      01001F90H   LINE      CODE     ---       #1175
      01001F92H   LINE      CODE     ---       #1177
      01001FA3H   LINE      CODE     ---       #1179
      01001FADH   LINE      CODE     ---       #1180
      01001FDAH   LINE      CODE     ---       #1181
      01002010H   LINE      CODE     ---       #1182
      0100204CH   LINE      CODE     ---       #1183
      0100204CH   LINE      CODE     ---       #1185
      0100204FH   LINE      CODE     ---       #1186
      01002052H   LINE      CODE     ---       #1188
LX51 LINKER/LOCATER V4.66.100.0                                                       04/23/2024  19:14:21  PAGE 98


      0100205DH   LINE      CODE     ---       #1189
      0100205FH   LINE      CODE     ---       #1190
      01002061H   LINE      CODE     ---       #1192
      01002063H   LINE      CODE     ---       #1193
      01002065H   LINE      CODE     ---       #1194
      01002067H   LINE      CODE     ---       #1195
      01002069H   LINE      CODE     ---       #1196
      0100206BH   LINE      CODE     ---       #1197
      0100206DH   LINE      CODE     ---       #1198
      0100206FH   LINE      CODE     ---       #1199
      01002071H   LINE      CODE     ---       #1200
      01002073H   LINE      CODE     ---       #1201
      01002075H   LINE      CODE     ---       #1202
      01002077H   LINE      CODE     ---       #1203
      01002079H   LINE      CODE     ---       #1204
      0100207BH   LINE      CODE     ---       #1205
      0100207DH   LINE      CODE     ---       #1207
      0100208EH   LINE      CODE     ---       #1209
      01002098H   LINE      CODE     ---       #1210
      010020C7H   LINE      CODE     ---       #1211
      010020FFH   LINE      CODE     ---       #1212
      0100213DH   LINE      CODE     ---       #1213
      0100213DH   LINE      CODE     ---       #1217
      01002140H   LINE      CODE     ---       #1218
      01002143H   LINE      CODE     ---       #1220
      0100214EH   LINE      CODE     ---       #1221
      01002150H   LINE      CODE     ---       #1222
      01002152H   LINE      CODE     ---       #1224
      01002154H   LINE      CODE     ---       #1225
      01002156H   LINE      CODE     ---       #1226
      01002158H   LINE      CODE     ---       #1227
      0100215AH   LINE      CODE     ---       #1228
      0100215CH   LINE      CODE     ---       #1229
      0100215EH   LINE      CODE     ---       #1230
      01002160H   LINE      CODE     ---       #1231
      01002162H   LINE      CODE     ---       #1232
      01002164H   LINE      CODE     ---       #1233
      01002166H   LINE      CODE     ---       #1234
      01002168H   LINE      CODE     ---       #1235
      0100216AH   LINE      CODE     ---       #1236
      0100216CH   LINE      CODE     ---       #1237
      0100216EH   LINE      CODE     ---       #1239
      0100217FH   LINE      CODE     ---       #1241
      01002189H   LINE      CODE     ---       #1242
      010021B9H   LINE      CODE     ---       #1243
      010021F2H   LINE      CODE     ---       #1244
      01002231H   LINE      CODE     ---       #1245
      01002270H   LINE      CODE     ---       #1246
      010022B0H   LINE      CODE     ---       #1247
      010022EFH   LINE      CODE     ---       #1248
      0100232EH   LINE      CODE     ---       #1249
      0100236DH   LINE      CODE     ---       #1250
      010023A0H   LINE      CODE     ---       #1251
      010023D5H   LINE      CODE     ---       #1252
      0100240CH   LINE      CODE     ---       #1253
      0100240CH   LINE      CODE     ---       #1255
      0100240FH   LINE      CODE     ---       #1256
      01002412H   LINE      CODE     ---       #1260
      0100241DH   LINE      CODE     ---       #1261
      0100241FH   LINE      CODE     ---       #1262
      01002421H   LINE      CODE     ---       #1264
      01002423H   LINE      CODE     ---       #1265
      01002425H   LINE      CODE     ---       #1266
      01002427H   LINE      CODE     ---       #1267
      01002429H   LINE      CODE     ---       #1268
LX51 LINKER/LOCATER V4.66.100.0                                                       04/23/2024  19:14:21  PAGE 99


      0100242BH   LINE      CODE     ---       #1269
      0100242DH   LINE      CODE     ---       #1270
      0100242FH   LINE      CODE     ---       #1271
      01002431H   LINE      CODE     ---       #1272
      01002433H   LINE      CODE     ---       #1273
      01002435H   LINE      CODE     ---       #1274
      01002437H   LINE      CODE     ---       #1275
      01002439H   LINE      CODE     ---       #1276
      0100243BH   LINE      CODE     ---       #1277
      0100243DH   LINE      CODE     ---       #1279
      0100244EH   LINE      CODE     ---       #1281
      01002458H   LINE      CODE     ---       #1282
      01002486H   LINE      CODE     ---       #1283
      010024BDH   LINE      CODE     ---       #1284
      010024FAH   LINE      CODE     ---       #1285
      01002537H   LINE      CODE     ---       #1286
      01002575H   LINE      CODE     ---       #1287
      010025B2H   LINE      CODE     ---       #1288
      010025EFH   LINE      CODE     ---       #1289
      0100262CH   LINE      CODE     ---       #1290
      0100265DH   LINE      CODE     ---       #1291
      01002690H   LINE      CODE     ---       #1292
      010026C5H   LINE      CODE     ---       #1293
      010026C5H   LINE      CODE     ---       #1296
      010026C8H   LINE      CODE     ---       #1297
      010026CBH   LINE      CODE     ---       #1299
      010026D6H   LINE      CODE     ---       #1300
      010026D8H   LINE      CODE     ---       #1301
      010026DAH   LINE      CODE     ---       #1303
      010026DCH   LINE      CODE     ---       #1304
      010026DEH   LINE      CODE     ---       #1305
      010026E0H   LINE      CODE     ---       #1306
      010026E2H   LINE      CODE     ---       #1307
      010026E4H   LINE      CODE     ---       #1308
      010026E6H   LINE      CODE     ---       #1309
      010026E8H   LINE      CODE     ---       #1310
      010026EAH   LINE      CODE     ---       #1311
      010026ECH   LINE      CODE     ---       #1312
      010026EEH   LINE      CODE     ---       #1313
      010026F0H   LINE      CODE     ---       #1314
      010026F2H   LINE      CODE     ---       #1315
      010026F4H   LINE      CODE     ---       #1316
      010026F6H   LINE      CODE     ---       #1318
      01002707H   LINE      CODE     ---       #1320
      0100270FH   LINE      CODE     ---       #1321
      0100273EH   LINE      CODE     ---       #1322
      01002777H   LINE      CODE     ---       #1323
      01002777H   LINE      CODE     ---       #1325
      0100277AH   LINE      CODE     ---       #1326
      0100277AH   LINE      CODE     ---       #1328
      01002780H   LINE      CODE     ---       #1329
      01002788H   LINE      CODE     ---       #1334
      ---         BLOCKEND  ---      ---       LVL=0

      ---         MODULE    ---      ---       DISPLAY_FUNCTION
      01005351H   PUBLIC    CODE     ---       DisplayKeyLed
      000000BFH   SFRSYM    DATA     BYTE      SPI_SPID
      0000009DH   SFRSYM    DATA     BYTE      PWM1_L_L
      000000AEH   SFRSYM    DATA     BYTE      INT_PE_STAT
      000000A2H   SFRSYM    DATA     BYTE      PWM2_L_L
      000000C3H   SFRSYM    DATA     BYTE      ADC_SCAN_CFG
      000000A6H   SFRSYM    DATA     BYTE      PWM3_L_L
      000000A0H   SFRSYM    DATA     BYTE      P2_XH
      000000D0H.6 SFRSYM    DATA     BIT       AC
      000000BDH   SFRSYM    DATA     BYTE      SCI_D
LX51 LINKER/LOCATER V4.66.100.0                                                       04/23/2024  19:14:21  PAGE 100


      000000EAH   SFRSYM    DATA     BYTE      TRISA
      00000098H.1 SFRSYM    DATA     BIT       SCI_F
      000000E8H.2 SFRSYM    DATA     BIT       IIC_ACK
      000000A8H.7 SFRSYM    DATA     BIT       EA
      000000EBH   SFRSYM    DATA     BYTE      TRISB
      000000ECH   SFRSYM    DATA     BYTE      TRISC
      000000B9H   SFRSYM    DATA     BYTE      DP_CON1
      00000091H   SFRSYM    DATA     BYTE      WDT_CTRL
      00000098H.4 SFRSYM    DATA     BIT       SCI_I
      000000FBH   SFRSYM    DATA     BYTE      PCD_CFG
      000000EEH   SFRSYM    DATA     BYTE      TRISE
      000000D1H   SFRSYM    DATA     BYTE      SPROG_DATA
      000000B3H   SFRSYM    DATA     BYTE      SCAN_WIDTH
      000000EFH   SFRSYM    DATA     BYTE      TRISF
      000000F2H   SFRSYM    DATA     BYTE      TRISG
      000000ACH   SFRSYM    DATA     BYTE      CSD_RAWDATAH
      000000F7H   SFRSYM    DATA     BYTE      TRISH
      000000FCH   SFRSYM    DATA     BYTE      PCD_CMD
      000000A8H   SFRSYM    DATA     BYTE      IEN0
      00000098H.2 SFRSYM    DATA     BIT       SCI_N
      000000E6H   SFRSYM    DATA     BYTE      IEN1
      000000E7H   SFRSYM    DATA     BYTE      IEN2
      000000ABH   SFRSYM    DATA     BYTE      CSD_RAWDATAL
      00000098H.0 SFRSYM    DATA     BIT       SCI_P
      000000FEH   SFRSYM    DATA     BYTE      PCD_BIT_ER
      000000E9H   SFRSYM    DATA     BYTE      IICBUFFER
      000000E8H   SFRSYM    DATA     BYTE      IICSTAT
      000000B8H   SFRSYM    DATA     BYTE      IPL0
      000000F6H   SFRSYM    DATA     BYTE      IPL1
      000000AFH   SFRSYM    DATA     BYTE      SCAN_START
      000000F4H   SFRSYM    DATA     BYTE      IPL2
      0000008EH   SFRSYM    DATA     BYTE      SOFT_RST
      000000C4H   SFRSYM    DATA     BYTE      ADCCKC
      000000B2H   SFRSYM    DATA     BYTE      DP_MODE
      000000D0H.7 SFRSYM    DATA     BIT       CY
      000000D5H   SFRSYM    DATA     BYTE      INT_POBO_STAT
      000000E3H   SFRSYM    DATA     BYTE      IICADD
      000000DCH   SFRSYM    DATA     BYTE      UART0_BDL
      000000C1H   SFRSYM    DATA     BYTE      ADC_SPT
      000000D6H   SFRSYM    DATA     BYTE      UART1_BDL
      00000081H   SFRSYM    DATA     BYTE      SP
      000000D0H.2 SFRSYM    DATA     BIT       OV
      000000C7H   SFRSYM    DATA     BYTE      EXINT_STAT
      00000094H   SFRSYM    DATA     BYTE      TIMER2_SET_H
      000000E2H   SFRSYM    DATA     BYTE      UART0_BUF
      00000085H   SFRSYM    DATA     BYTE      TIMER3_SET_H
      000000DBH   SFRSYM    DATA     BYTE      UART1_BUF
      000000CAH   SFRSYM    DATA     BYTE      PULL_I_SEL
      000000F1H   SFRSYM    DATA     BYTE      IRCON1
      000000E1H   SFRSYM    DATA     BYTE      IRCON2
      00000095H   SFRSYM    DATA     BYTE      TIMER2_SET_L
      00000086H   SFRSYM    DATA     BYTE      TIMER3_SET_L
      00000087H   SFRSYM    DATA     BYTE      PCON
      000000CEH   SFRSYM    DATA     BYTE      SPROG_ADDR_H
      000000EDH   SFRSYM    DATA     BYTE      SCI_C1
      000000E4H   SFRSYM    DATA     BYTE      IICBUF
      000000BAH   SFRSYM    DATA     BYTE      SCI_C2
      00000089H   SFRSYM    DATA     BYTE      TMOD
      00000088H   SFRSYM    DATA     BYTE      TCON
      000000CFH   SFRSYM    DATA     BYTE      SPROG_ADDR_L
      000000BBH   SFRSYM    DATA     BYTE      SCI_C3
      000000E8H.0 SFRSYM    DATA     BIT       IIC_RECOV
      000000E5H   SFRSYM    DATA     BYTE      IICCON
      000000E8H.4 SFRSYM    DATA     BIT       IIC_AD
      000000FDH   SFRSYM    DATA     BYTE      PCD_CFG2
LX51 LINKER/LOCATER V4.66.100.0                                                       04/23/2024  19:14:21  PAGE 101


      000000FFH   SFRSYM    DATA     BYTE      PCD_CFG3
      000000E8H.3 SFRSYM    DATA     BIT       IIC_BF
      00000088H.1 SFRSYM    DATA     BIT       IE0
      00000088H.3 SFRSYM    DATA     BIT       IE1
      000000F8H.0 SFRSYM    DATA     BIT       PA0
      000000F0H   SFRSYM    DATA     BYTE      B
      00000080H.0 SFRSYM    DATA     BIT       PB0
      000000F8H.1 SFRSYM    DATA     BIT       PA1
      000000D2H   SFRSYM    DATA     BYTE      SPROG_CMD
      00000090H.0 SFRSYM    DATA     BIT       PC0
      00000080H.1 SFRSYM    DATA     BIT       PB1
      000000F8H.2 SFRSYM    DATA     BIT       PA2
      00000090H.1 SFRSYM    DATA     BIT       PC1
      00000080H.2 SFRSYM    DATA     BIT       PB2
      000000F8H.3 SFRSYM    DATA     BIT       PA3
      00000098H   SFRSYM    DATA     BYTE      SCI_S1
      000000B0H.0 SFRSYM    DATA     BIT       PE0
      00000090H.2 SFRSYM    DATA     BIT       PC2
      00000080H.3 SFRSYM    DATA     BIT       PB3
      000000BCH   SFRSYM    DATA     BYTE      SCI_S2
      000000E8H.7 SFRSYM    DATA     BIT       IIC_START
      000000C0H.0 SFRSYM    DATA     BIT       PF0
      000000B0H.1 SFRSYM    DATA     BIT       PE1
      00000090H.3 SFRSYM    DATA     BIT       PC3
      00000080H.4 SFRSYM    DATA     BIT       PB4
      000000C8H.0 SFRSYM    DATA     BIT       PG0
      000000C0H.1 SFRSYM    DATA     BIT       PF1
      000000B0H.2 SFRSYM    DATA     BIT       PE2
      00000090H.4 SFRSYM    DATA     BIT       PC4
      00000080H.5 SFRSYM    DATA     BIT       PB5
      000000F9H   SFRSYM    DATA     BYTE      PCD_BUF1
      000000E0H   SFRSYM    DATA     BYTE      ACC
      000000D8H.0 SFRSYM    DATA     BIT       PH0
      000000C8H.1 SFRSYM    DATA     BIT       PG1
      000000C0H.2 SFRSYM    DATA     BIT       PF2
      000000B0H.3 SFRSYM    DATA     BIT       PE3
      00000090H.5 SFRSYM    DATA     BIT       PC5
      00000080H.6 SFRSYM    DATA     BIT       PB6
      000000FAH   SFRSYM    DATA     BYTE      PCD_BUF2
      000000D8H.1 SFRSYM    DATA     BIT       PH1
      000000C8H.2 SFRSYM    DATA     BIT       PG2
      000000C0H.3 SFRSYM    DATA     BIT       PF3
      000000B0H.4 SFRSYM    DATA     BIT       PE4
      000000A8H.1 SFRSYM    DATA     BIT       ET0
      00000090H.6 SFRSYM    DATA     BIT       PC6
      00000080H.7 SFRSYM    DATA     BIT       PB7
      000000D8H.2 SFRSYM    DATA     BIT       PH2
      000000C8H.3 SFRSYM    DATA     BIT       PG3
      000000C0H.4 SFRSYM    DATA     BIT       PF4
      000000B0H.5 SFRSYM    DATA     BIT       PE5
      000000A8H.3 SFRSYM    DATA     BIT       ET1
      00000090H.7 SFRSYM    DATA     BIT       PC7
      00000088H.5 SFRSYM    DATA     BIT       TF0
      000000D8H.3 SFRSYM    DATA     BIT       PH3
      000000C0H.5 SFRSYM    DATA     BIT       PF5
      000000B0H.6 SFRSYM    DATA     BIT       PE6
      00000088H.7 SFRSYM    DATA     BIT       TF1
      000000C9H   SFRSYM    DATA     BYTE      CSD_START
      000000D8H.4 SFRSYM    DATA     BIT       PH4
      000000C0H.6 SFRSYM    DATA     BIT       PF6
      000000B0H.7 SFRSYM    DATA     BIT       PE7
      0000008CH   SFRSYM    DATA     BYTE      TH0
      000000D8H.5 SFRSYM    DATA     BIT       PH5
      000000C0H.7 SFRSYM    DATA     BIT       PF7
      000000A8H.0 SFRSYM    DATA     BIT       EX0
LX51 LINKER/LOCATER V4.66.100.0                                                       04/23/2024  19:14:21  PAGE 102


      0000008DH   SFRSYM    DATA     BYTE      TH1
      000000D8H.6 SFRSYM    DATA     BIT       PH6
      000000A8H.2 SFRSYM    DATA     BIT       EX1
      000000D8H.7 SFRSYM    DATA     BIT       PH7
      000000D0H.0 SFRSYM    DATA     BIT       P
      000000B5H   SFRSYM    DATA     BYTE      SPI_CFG1
      000000BEH   SFRSYM    DATA     BYTE      SPI_STATE
      000000B6H   SFRSYM    DATA     BYTE      SPI_CFG2
      0000008AH   SFRSYM    DATA     BYTE      TL0
      000000DFH   SFRSYM    DATA     BYTE      UART0_STATE
      0000008BH   SFRSYM    DATA     BYTE      TL1
      000000DAH   SFRSYM    DATA     BYTE      UART1_STATE
      000000B8H.1 SFRSYM    DATA     BIT       PT0
      000000D0H.3 SFRSYM    DATA     BIT       RS0
      000000B8H.3 SFRSYM    DATA     BIT       PT1
      000000B1H   SFRSYM    DATA     BYTE      DP_CON
      000000D0H.4 SFRSYM    DATA     BIT       RS1
      00000088H.4 SFRSYM    DATA     BIT       TR0
      00000088H.6 SFRSYM    DATA     BIT       TR1
      000000B8H.0 SFRSYM    DATA     BIT       PX0
      000000D3H   SFRSYM    DATA     BYTE      SPROG_TIM
      00000098H.7 SFRSYM    DATA     BIT       SCI_TE
      00000098H.6 SFRSYM    DATA     BIT       SCI_TF
      000000B8H.2 SFRSYM    DATA     BIT       PX2
      00000097H   SFRSYM    DATA     BYTE      REG_DATA
      00000098H.5 SFRSYM    DATA     BIT       SCI_RI
      000000D4H   SFRSYM    DATA     BYTE      SPROG_RDATA
      00000096H   SFRSYM    DATA     BYTE      REG_ADDR
      000000F8H   SFRSYM    DATA     BYTE      DATAA
      00000083H   SFRSYM    DATA     BYTE      DPH
      00000080H   SFRSYM    DATA     BYTE      DATAB
      000000CBH   SFRSYM    DATA     BYTE      SNS_SCAN_CFG1
      00000090H   SFRSYM    DATA     BYTE      DATAC
      000000E8H.5 SFRSYM    DATA     BIT       IIC_RW
      000000CCH   SFRSYM    DATA     BYTE      SNS_SCAN_CFG2
      000000C5H   SFRSYM    DATA     BYTE      ADC_RDATAH
      000000DDH   SFRSYM    DATA     BYTE      UART0_CON1
      000000CDH   SFRSYM    DATA     BYTE      SNS_SCAN_CFG3
      000000B0H   SFRSYM    DATA     BYTE      DATAE
      00000082H   SFRSYM    DATA     BYTE      DPL
      00000098H.3 SFRSYM    DATA     BIT       SCI_RO
      000000DEH   SFRSYM    DATA     BYTE      UART0_CON2
      000000D7H   SFRSYM    DATA     BYTE      UART1_CON1
      000000C0H   SFRSYM    DATA     BYTE      DATAF
      000000D9H   SFRSYM    DATA     BYTE      UART1_CON2
      000000C8H   SFRSYM    DATA     BYTE      DATAG
      000000D8H   SFRSYM    DATA     BYTE      DATAH
      000000C6H   SFRSYM    DATA     BYTE      ADC_RDATAL
      00000092H   SFRSYM    DATA     BYTE      WDT_EN
      00000093H   SFRSYM    DATA     BYTE      TIMER2_CFG
      00000084H   SFRSYM    DATA     BYTE      TIMER3_CFG
      000000B4H   SFRSYM    DATA     BYTE      LED2_WIDTH
      000000E8H.1 SFRSYM    DATA     BIT       IIC_WCOL
      000000ADH   SFRSYM    DATA     BYTE      SYS_CLK_CFG
      000000C2H   SFRSYM    DATA     BYTE      SCI_INT_CLR
      000000D0H.5 SFRSYM    DATA     BIT       F0
      0000009CH   SFRSYM    DATA     BYTE      PWM0_H_H
      000000D0H.1 SFRSYM    DATA     BIT       F1
      000000A1H   SFRSYM    DATA     BYTE      PWM1_H_H
      000000A5H   SFRSYM    DATA     BYTE      PWM2_H_H
      000000AAH   SFRSYM    DATA     BYTE      PWM3_H_H
      0000009BH   SFRSYM    DATA     BYTE      PWM0_H_L
      0000009AH   SFRSYM    DATA     BYTE      PWM0_L_H
      000000D0H   SFRSYM    DATA     BYTE      PSW
      0000009FH   SFRSYM    DATA     BYTE      PWM1_H_L
LX51 LINKER/LOCATER V4.66.100.0                                                       04/23/2024  19:14:21  PAGE 103


      0000009EH   SFRSYM    DATA     BYTE      PWM1_L_H
      000000A4H   SFRSYM    DATA     BYTE      PWM2_H_L
      000000A3H   SFRSYM    DATA     BYTE      PWM2_L_H
      000000A9H   SFRSYM    DATA     BYTE      PWM3_H_L
      000000A7H   SFRSYM    DATA     BYTE      PWM3_L_H
      000000E8H.6 SFRSYM    DATA     BIT       IIC_STOP
      00000099H   SFRSYM    DATA     BYTE      PWM0_L_L

      01005351H   BLOCK     CODE     ---       LVL=0
      01005351H   LINE      CODE     ---       #6
      01005351H   LINE      CODE     ---       #9
      01005360H   LINE      CODE     ---       #63
      ---         BLOCKEND  ---      ---       LVL=0

      ---         MODULE    ---      ---       ?C?FCAST
      0100342CH   PUBLIC    CODE     ---       ?C?FCASTC
      01003427H   PUBLIC    CODE     ---       ?C?FCASTI
      01003422H   PUBLIC    CODE     ---       ?C?FCASTL

      ---         MODULE    ---      ---       ?C?CASTF
      01003460H   PUBLIC    CODE     ---       ?C?CASTF

      ---         MODULE    ---      ---       ?C_INIT
      01004A87H   PUBLIC    CODE     ---       ?C_START

      ---         MODULE    ---      ---       ?C?CLDOPTR
      01003497H   PUBLIC    CODE     ---       ?C?CLDOPTR

      ---         MODULE    ---      ---       ?C?CSTPTR
      010034C4H   PUBLIC    CODE     ---       ?C?CSTPTR

      ---         MODULE    ---      ---       ?C?CSTOPTR
      010034D6H   PUBLIC    CODE     ---       ?C?CSTOPTR

      ---         MODULE    ---      ---       ?C?IMUL
      010034F8H   PUBLIC    CODE     ---       ?C?IMUL

      ---         MODULE    ---      ---       ?C?SIDIV
      0100350AH   PUBLIC    CODE     ---       ?C?SIDIV

      ---         MODULE    ---      ---       ?C?IILDX
      01003540H   PUBLIC    CODE     ---       ?C?IILDX

      ---         MODULE    ---      ---       ?C?LMUL
      01003556H   PUBLIC    CODE     ---       ?C?LMUL

      ---         MODULE    ---      ---       ?C?ULDIV
      010035E1H   PUBLIC    CODE     ---       ?C?ULDIV

      ---         MODULE    ---      ---       ?C?SLDIV
      010050B2H   PUBLIC    CODE     ---       ?C?SLDIV

      ---         MODULE    ---      ---       ?C?LNOT
      01003673H   PUBLIC    CODE     ---       ?C?LNOT

      ---         MODULE    ---      ---       ?C?LNEG
      01003680H   PUBLIC    CODE     ---       ?C?LNEG

      ---         MODULE    ---      ---       ?C?SLCMP
      0100368EH   PUBLIC    CODE     ---       ?C?SLCMP

      ---         MODULE    ---      ---       ?C?ULCMP
      010036A4H   PUBLIC    CODE     ---       ?C?ULCMP

      ---         MODULE    ---      ---       ?C?ULSHR
LX51 LINKER/LOCATER V4.66.100.0                                                       04/23/2024  19:14:21  PAGE 104


      010036B5H   PUBLIC    CODE     ---       ?C?ULSHR

      ---         MODULE    ---      ---       ?C?SLSHR
      010036C8H   PUBLIC    CODE     ---       ?C?SLSHR

      ---         MODULE    ---      ---       ?C?LSHL
      010036DCH   PUBLIC    CODE     ---       ?C?LSHL

      ---         MODULE    ---      ---       ?C?LSTXDATA
      010036EFH   PUBLIC    CODE     ---       ?C?LSTXDATA

      ---         MODULE    ---      ---       ?C?LSTKXDATA
      010036FBH   PUBLIC    CODE     ---       ?C?LSTKXDATA

      ---         MODULE    ---      ---       ?C?LCASE
      0100372CH   PUBLIC    CODE     ---       ?C?LCASE

      ---         MODULE    ---      ---       ?C?MEMSET
      01003766H   PUBLIC    CODE     ---       ?C?MEMSET

      ---         MODULE    ---      ---       ?C?UIDIV
      01003792H   PUBLIC    CODE     ---       ?C?UIDIV



*** WARNING L15: MULTIPLE CALL TO FUNCTION
    NAME:    _CTK_BF7615BMXX_XXXX_SET_PARA/BF7615BMXX_XXXX_CTK
    CALLER1: ?C_C51STARTUP
    CALLER2: CTK_ISR/BF7615BMXX_XXXX_CTK

Program Size: data=34.1 xdata=518 const=278 code=21301
LX51 RUN COMPLETE.  1 WARNING(S),  0 ERROR(S)
